
ctarget:     file format elf64-x86-64


Disassembly of section .init:

0000000000400c48 <_init>:
  400c48:	48 83 ec 08          	sub    $0x8,%rsp
  400c4c:	48 8b 05 a5 43 20 00 	mov    0x2043a5(%rip),%rax        # 604ff8 <__gmon_start__>
  400c53:	48 85 c0             	test   %rax,%rax
  400c56:	74 05                	je     400c5d <_init+0x15>
  400c58:	e8 43 02 00 00       	callq  400ea0 <__gmon_start__@plt>
  400c5d:	48 83 c4 08          	add    $0x8,%rsp
  400c61:	c3                   	retq   

Disassembly of section .plt:

0000000000400c70 <.plt>:
  400c70:	ff 35 92 43 20 00    	pushq  0x204392(%rip)        # 605008 <_GLOBAL_OFFSET_TABLE_+0x8>
  400c76:	ff 25 94 43 20 00    	jmpq   *0x204394(%rip)        # 605010 <_GLOBAL_OFFSET_TABLE_+0x10>
  400c7c:	0f 1f 40 00          	nopl   0x0(%rax)

0000000000400c80 <strcasecmp@plt>:
  400c80:	ff 25 92 43 20 00    	jmpq   *0x204392(%rip)        # 605018 <strcasecmp@GLIBC_2.2.5>
  400c86:	68 00 00 00 00       	pushq  $0x0
  400c8b:	e9 e0 ff ff ff       	jmpq   400c70 <.plt>

0000000000400c90 <__errno_location@plt>:
  400c90:	ff 25 8a 43 20 00    	jmpq   *0x20438a(%rip)        # 605020 <__errno_location@GLIBC_2.2.5>
  400c96:	68 01 00 00 00       	pushq  $0x1
  400c9b:	e9 d0 ff ff ff       	jmpq   400c70 <.plt>

0000000000400ca0 <srandom@plt>:
  400ca0:	ff 25 82 43 20 00    	jmpq   *0x204382(%rip)        # 605028 <srandom@GLIBC_2.2.5>
  400ca6:	68 02 00 00 00       	pushq  $0x2
  400cab:	e9 c0 ff ff ff       	jmpq   400c70 <.plt>

0000000000400cb0 <strncmp@plt>:
  400cb0:	ff 25 7a 43 20 00    	jmpq   *0x20437a(%rip)        # 605030 <strncmp@GLIBC_2.2.5>
  400cb6:	68 03 00 00 00       	pushq  $0x3
  400cbb:	e9 b0 ff ff ff       	jmpq   400c70 <.plt>

0000000000400cc0 <strcpy@plt>:
  400cc0:	ff 25 72 43 20 00    	jmpq   *0x204372(%rip)        # 605038 <strcpy@GLIBC_2.2.5>
  400cc6:	68 04 00 00 00       	pushq  $0x4
  400ccb:	e9 a0 ff ff ff       	jmpq   400c70 <.plt>

0000000000400cd0 <puts@plt>:
  400cd0:	ff 25 6a 43 20 00    	jmpq   *0x20436a(%rip)        # 605040 <puts@GLIBC_2.2.5>
  400cd6:	68 05 00 00 00       	pushq  $0x5
  400cdb:	e9 90 ff ff ff       	jmpq   400c70 <.plt>

0000000000400ce0 <write@plt>:
  400ce0:	ff 25 62 43 20 00    	jmpq   *0x204362(%rip)        # 605048 <write@GLIBC_2.2.5>
  400ce6:	68 06 00 00 00       	pushq  $0x6
  400ceb:	e9 80 ff ff ff       	jmpq   400c70 <.plt>

0000000000400cf0 <__stack_chk_fail@plt>:
  400cf0:	ff 25 5a 43 20 00    	jmpq   *0x20435a(%rip)        # 605050 <__stack_chk_fail@GLIBC_2.4>
  400cf6:	68 07 00 00 00       	pushq  $0x7
  400cfb:	e9 70 ff ff ff       	jmpq   400c70 <.plt>

0000000000400d00 <mmap@plt>:
  400d00:	ff 25 52 43 20 00    	jmpq   *0x204352(%rip)        # 605058 <mmap@GLIBC_2.2.5>
  400d06:	68 08 00 00 00       	pushq  $0x8
  400d0b:	e9 60 ff ff ff       	jmpq   400c70 <.plt>

0000000000400d10 <memset@plt>:
  400d10:	ff 25 4a 43 20 00    	jmpq   *0x20434a(%rip)        # 605060 <memset@GLIBC_2.2.5>
  400d16:	68 09 00 00 00       	pushq  $0x9
  400d1b:	e9 50 ff ff ff       	jmpq   400c70 <.plt>

0000000000400d20 <alarm@plt>:
  400d20:	ff 25 42 43 20 00    	jmpq   *0x204342(%rip)        # 605068 <alarm@GLIBC_2.2.5>
  400d26:	68 0a 00 00 00       	pushq  $0xa
  400d2b:	e9 40 ff ff ff       	jmpq   400c70 <.plt>

0000000000400d30 <close@plt>:
  400d30:	ff 25 3a 43 20 00    	jmpq   *0x20433a(%rip)        # 605070 <close@GLIBC_2.2.5>
  400d36:	68 0b 00 00 00       	pushq  $0xb
  400d3b:	e9 30 ff ff ff       	jmpq   400c70 <.plt>

0000000000400d40 <read@plt>:
  400d40:	ff 25 32 43 20 00    	jmpq   *0x204332(%rip)        # 605078 <read@GLIBC_2.2.5>
  400d46:	68 0c 00 00 00       	pushq  $0xc
  400d4b:	e9 20 ff ff ff       	jmpq   400c70 <.plt>

0000000000400d50 <__libc_start_main@plt>:
  400d50:	ff 25 2a 43 20 00    	jmpq   *0x20432a(%rip)        # 605080 <__libc_start_main@GLIBC_2.2.5>
  400d56:	68 0d 00 00 00       	pushq  $0xd
  400d5b:	e9 10 ff ff ff       	jmpq   400c70 <.plt>

0000000000400d60 <signal@plt>:
  400d60:	ff 25 22 43 20 00    	jmpq   *0x204322(%rip)        # 605088 <signal@GLIBC_2.2.5>
  400d66:	68 0e 00 00 00       	pushq  $0xe
  400d6b:	e9 00 ff ff ff       	jmpq   400c70 <.plt>

0000000000400d70 <gethostbyname@plt>:
  400d70:	ff 25 1a 43 20 00    	jmpq   *0x20431a(%rip)        # 605090 <gethostbyname@GLIBC_2.2.5>
  400d76:	68 0f 00 00 00       	pushq  $0xf
  400d7b:	e9 f0 fe ff ff       	jmpq   400c70 <.plt>

0000000000400d80 <__memmove_chk@plt>:
  400d80:	ff 25 12 43 20 00    	jmpq   *0x204312(%rip)        # 605098 <__memmove_chk@GLIBC_2.3.4>
  400d86:	68 10 00 00 00       	pushq  $0x10
  400d8b:	e9 e0 fe ff ff       	jmpq   400c70 <.plt>

0000000000400d90 <strtol@plt>:
  400d90:	ff 25 0a 43 20 00    	jmpq   *0x20430a(%rip)        # 6050a0 <strtol@GLIBC_2.2.5>
  400d96:	68 11 00 00 00       	pushq  $0x11
  400d9b:	e9 d0 fe ff ff       	jmpq   400c70 <.plt>

0000000000400da0 <memcpy@plt>:
  400da0:	ff 25 02 43 20 00    	jmpq   *0x204302(%rip)        # 6050a8 <memcpy@GLIBC_2.14>
  400da6:	68 12 00 00 00       	pushq  $0x12
  400dab:	e9 c0 fe ff ff       	jmpq   400c70 <.plt>

0000000000400db0 <time@plt>:
  400db0:	ff 25 fa 42 20 00    	jmpq   *0x2042fa(%rip)        # 6050b0 <time@GLIBC_2.2.5>
  400db6:	68 13 00 00 00       	pushq  $0x13
  400dbb:	e9 b0 fe ff ff       	jmpq   400c70 <.plt>

0000000000400dc0 <random@plt>:
  400dc0:	ff 25 f2 42 20 00    	jmpq   *0x2042f2(%rip)        # 6050b8 <random@GLIBC_2.2.5>
  400dc6:	68 14 00 00 00       	pushq  $0x14
  400dcb:	e9 a0 fe ff ff       	jmpq   400c70 <.plt>

0000000000400dd0 <_IO_getc@plt>:
  400dd0:	ff 25 ea 42 20 00    	jmpq   *0x2042ea(%rip)        # 6050c0 <_IO_getc@GLIBC_2.2.5>
  400dd6:	68 15 00 00 00       	pushq  $0x15
  400ddb:	e9 90 fe ff ff       	jmpq   400c70 <.plt>

0000000000400de0 <__isoc99_sscanf@plt>:
  400de0:	ff 25 e2 42 20 00    	jmpq   *0x2042e2(%rip)        # 6050c8 <__isoc99_sscanf@GLIBC_2.7>
  400de6:	68 16 00 00 00       	pushq  $0x16
  400deb:	e9 80 fe ff ff       	jmpq   400c70 <.plt>

0000000000400df0 <munmap@plt>:
  400df0:	ff 25 da 42 20 00    	jmpq   *0x2042da(%rip)        # 6050d0 <munmap@GLIBC_2.2.5>
  400df6:	68 17 00 00 00       	pushq  $0x17
  400dfb:	e9 70 fe ff ff       	jmpq   400c70 <.plt>

0000000000400e00 <__printf_chk@plt>:
  400e00:	ff 25 d2 42 20 00    	jmpq   *0x2042d2(%rip)        # 6050d8 <__printf_chk@GLIBC_2.3.4>
  400e06:	68 18 00 00 00       	pushq  $0x18
  400e0b:	e9 60 fe ff ff       	jmpq   400c70 <.plt>

0000000000400e10 <fopen@plt>:
  400e10:	ff 25 ca 42 20 00    	jmpq   *0x2042ca(%rip)        # 6050e0 <fopen@GLIBC_2.2.5>
  400e16:	68 19 00 00 00       	pushq  $0x19
  400e1b:	e9 50 fe ff ff       	jmpq   400c70 <.plt>

0000000000400e20 <getopt@plt>:
  400e20:	ff 25 c2 42 20 00    	jmpq   *0x2042c2(%rip)        # 6050e8 <getopt@GLIBC_2.2.5>
  400e26:	68 1a 00 00 00       	pushq  $0x1a
  400e2b:	e9 40 fe ff ff       	jmpq   400c70 <.plt>

0000000000400e30 <strtoul@plt>:
  400e30:	ff 25 ba 42 20 00    	jmpq   *0x2042ba(%rip)        # 6050f0 <strtoul@GLIBC_2.2.5>
  400e36:	68 1b 00 00 00       	pushq  $0x1b
  400e3b:	e9 30 fe ff ff       	jmpq   400c70 <.plt>

0000000000400e40 <gethostname@plt>:
  400e40:	ff 25 b2 42 20 00    	jmpq   *0x2042b2(%rip)        # 6050f8 <gethostname@GLIBC_2.2.5>
  400e46:	68 1c 00 00 00       	pushq  $0x1c
  400e4b:	e9 20 fe ff ff       	jmpq   400c70 <.plt>

0000000000400e50 <exit@plt>:
  400e50:	ff 25 aa 42 20 00    	jmpq   *0x2042aa(%rip)        # 605100 <exit@GLIBC_2.2.5>
  400e56:	68 1d 00 00 00       	pushq  $0x1d
  400e5b:	e9 10 fe ff ff       	jmpq   400c70 <.plt>

0000000000400e60 <connect@plt>:
  400e60:	ff 25 a2 42 20 00    	jmpq   *0x2042a2(%rip)        # 605108 <connect@GLIBC_2.2.5>
  400e66:	68 1e 00 00 00       	pushq  $0x1e
  400e6b:	e9 00 fe ff ff       	jmpq   400c70 <.plt>

0000000000400e70 <__fprintf_chk@plt>:
  400e70:	ff 25 9a 42 20 00    	jmpq   *0x20429a(%rip)        # 605110 <__fprintf_chk@GLIBC_2.3.4>
  400e76:	68 1f 00 00 00       	pushq  $0x1f
  400e7b:	e9 f0 fd ff ff       	jmpq   400c70 <.plt>

0000000000400e80 <__sprintf_chk@plt>:
  400e80:	ff 25 92 42 20 00    	jmpq   *0x204292(%rip)        # 605118 <__sprintf_chk@GLIBC_2.3.4>
  400e86:	68 20 00 00 00       	pushq  $0x20
  400e8b:	e9 e0 fd ff ff       	jmpq   400c70 <.plt>

0000000000400e90 <socket@plt>:
  400e90:	ff 25 8a 42 20 00    	jmpq   *0x20428a(%rip)        # 605120 <socket@GLIBC_2.2.5>
  400e96:	68 21 00 00 00       	pushq  $0x21
  400e9b:	e9 d0 fd ff ff       	jmpq   400c70 <.plt>

Disassembly of section .plt.got:

0000000000400ea0 <__gmon_start__@plt>:
  400ea0:	ff 25 52 41 20 00    	jmpq   *0x204152(%rip)        # 604ff8 <__gmon_start__>
  400ea6:	66 90                	xchg   %ax,%ax

Disassembly of section .text:

0000000000400eb0 <_start>:
  400eb0:	31 ed                	xor    %ebp,%ebp
  400eb2:	49 89 d1             	mov    %rdx,%r9
  400eb5:	5e                   	pop    %rsi
  400eb6:	48 89 e2             	mov    %rsp,%rdx
  400eb9:	48 83 e4 f0          	and    $0xfffffffffffffff0,%rsp
  400ebd:	50                   	push   %rax
  400ebe:	54                   	push   %rsp
  400ebf:	49 c7 c0 60 2e 40 00 	mov    $0x402e60,%r8
  400ec6:	48 c7 c1 f0 2d 40 00 	mov    $0x402df0,%rcx
  400ecd:	48 c7 c7 b5 11 40 00 	mov    $0x4011b5,%rdi
  400ed4:	e8 77 fe ff ff       	callq  400d50 <__libc_start_main@plt>
  400ed9:	f4                   	hlt    
  400eda:	66 0f 1f 44 00 00    	nopw   0x0(%rax,%rax,1)

0000000000400ee0 <deregister_tm_clones>:
  400ee0:	b8 b7 54 60 00       	mov    $0x6054b7,%eax
  400ee5:	55                   	push   %rbp
  400ee6:	48 2d b0 54 60 00    	sub    $0x6054b0,%rax
  400eec:	48 83 f8 0e          	cmp    $0xe,%rax
  400ef0:	48 89 e5             	mov    %rsp,%rbp
  400ef3:	76 1b                	jbe    400f10 <deregister_tm_clones+0x30>
  400ef5:	b8 00 00 00 00       	mov    $0x0,%eax
  400efa:	48 85 c0             	test   %rax,%rax
  400efd:	74 11                	je     400f10 <deregister_tm_clones+0x30>
  400eff:	5d                   	pop    %rbp
  400f00:	bf b0 54 60 00       	mov    $0x6054b0,%edi
  400f05:	ff e0                	jmpq   *%rax
  400f07:	66 0f 1f 84 00 00 00 	nopw   0x0(%rax,%rax,1)
  400f0e:	00 00 
  400f10:	5d                   	pop    %rbp
  400f11:	c3                   	retq   
  400f12:	0f 1f 40 00          	nopl   0x0(%rax)
  400f16:	66 2e 0f 1f 84 00 00 	nopw   %cs:0x0(%rax,%rax,1)
  400f1d:	00 00 00 

0000000000400f20 <register_tm_clones>:
  400f20:	be b0 54 60 00       	mov    $0x6054b0,%esi
  400f25:	55                   	push   %rbp
  400f26:	48 81 ee b0 54 60 00 	sub    $0x6054b0,%rsi
  400f2d:	48 c1 fe 03          	sar    $0x3,%rsi
  400f31:	48 89 e5             	mov    %rsp,%rbp
  400f34:	48 89 f0             	mov    %rsi,%rax
  400f37:	48 c1 e8 3f          	shr    $0x3f,%rax
  400f3b:	48 01 c6             	add    %rax,%rsi
  400f3e:	48 d1 fe             	sar    %rsi
  400f41:	74 15                	je     400f58 <register_tm_clones+0x38>
  400f43:	b8 00 00 00 00       	mov    $0x0,%eax
  400f48:	48 85 c0             	test   %rax,%rax
  400f4b:	74 0b                	je     400f58 <register_tm_clones+0x38>
  400f4d:	5d                   	pop    %rbp
  400f4e:	bf b0 54 60 00       	mov    $0x6054b0,%edi
  400f53:	ff e0                	jmpq   *%rax
  400f55:	0f 1f 00             	nopl   (%rax)
  400f58:	5d                   	pop    %rbp
  400f59:	c3                   	retq   
  400f5a:	66 0f 1f 44 00 00    	nopw   0x0(%rax,%rax,1)

0000000000400f60 <__do_global_dtors_aux>:
  400f60:	80 3d 81 45 20 00 00 	cmpb   $0x0,0x204581(%rip)        # 6054e8 <completed.7585>
  400f67:	75 11                	jne    400f7a <__do_global_dtors_aux+0x1a>
  400f69:	55                   	push   %rbp
  400f6a:	48 89 e5             	mov    %rsp,%rbp
  400f6d:	e8 6e ff ff ff       	callq  400ee0 <deregister_tm_clones>
  400f72:	5d                   	pop    %rbp
  400f73:	c6 05 6e 45 20 00 01 	movb   $0x1,0x20456e(%rip)        # 6054e8 <completed.7585>
  400f7a:	f3 c3                	repz retq 
  400f7c:	0f 1f 40 00          	nopl   0x0(%rax)

0000000000400f80 <frame_dummy>:
  400f80:	bf 20 4e 60 00       	mov    $0x604e20,%edi
  400f85:	48 83 3f 00          	cmpq   $0x0,(%rdi)
  400f89:	75 05                	jne    400f90 <frame_dummy+0x10>
  400f8b:	eb 93                	jmp    400f20 <register_tm_clones>
  400f8d:	0f 1f 00             	nopl   (%rax)
  400f90:	b8 00 00 00 00       	mov    $0x0,%eax
  400f95:	48 85 c0             	test   %rax,%rax
  400f98:	74 f1                	je     400f8b <frame_dummy+0xb>
  400f9a:	55                   	push   %rbp
  400f9b:	48 89 e5             	mov    %rsp,%rbp
  400f9e:	ff d0                	callq  *%rax
  400fa0:	5d                   	pop    %rbp
  400fa1:	e9 7a ff ff ff       	jmpq   400f20 <register_tm_clones>

0000000000400fa6 <usage>:
  400fa6:	48 83 ec 08          	sub    $0x8,%rsp
  400faa:	48 89 fa             	mov    %rdi,%rdx
  400fad:	83 3d 74 45 20 00 00 	cmpl   $0x0,0x204574(%rip)        # 605528 <is_checker>
  400fb4:	74 3e                	je     400ff4 <usage+0x4e>
  400fb6:	be 78 2e 40 00       	mov    $0x402e78,%esi
  400fbb:	bf 01 00 00 00       	mov    $0x1,%edi
  400fc0:	b8 00 00 00 00       	mov    $0x0,%eax
  400fc5:	e8 36 fe ff ff       	callq  400e00 <__printf_chk@plt>
  400fca:	bf b0 2e 40 00       	mov    $0x402eb0,%edi
  400fcf:	e8 fc fc ff ff       	callq  400cd0 <puts@plt>
  400fd4:	bf 28 30 40 00       	mov    $0x403028,%edi
  400fd9:	e8 f2 fc ff ff       	callq  400cd0 <puts@plt>
  400fde:	bf d8 2e 40 00       	mov    $0x402ed8,%edi
  400fe3:	e8 e8 fc ff ff       	callq  400cd0 <puts@plt>
  400fe8:	bf 42 30 40 00       	mov    $0x403042,%edi
  400fed:	e8 de fc ff ff       	callq  400cd0 <puts@plt>
  400ff2:	eb 32                	jmp    401026 <usage+0x80>
  400ff4:	be 5e 30 40 00       	mov    $0x40305e,%esi
  400ff9:	bf 01 00 00 00       	mov    $0x1,%edi
  400ffe:	b8 00 00 00 00       	mov    $0x0,%eax
  401003:	e8 f8 fd ff ff       	callq  400e00 <__printf_chk@plt>
  401008:	bf 00 2f 40 00       	mov    $0x402f00,%edi
  40100d:	e8 be fc ff ff       	callq  400cd0 <puts@plt>
  401012:	bf 28 2f 40 00       	mov    $0x402f28,%edi
  401017:	e8 b4 fc ff ff       	callq  400cd0 <puts@plt>
  40101c:	bf 7c 30 40 00       	mov    $0x40307c,%edi
  401021:	e8 aa fc ff ff       	callq  400cd0 <puts@plt>
  401026:	bf 00 00 00 00       	mov    $0x0,%edi
  40102b:	e8 20 fe ff ff       	callq  400e50 <exit@plt>

0000000000401030 <initialize_target>:
  401030:	55                   	push   %rbp
  401031:	53                   	push   %rbx
  401032:	48 81 ec 18 21 00 00 	sub    $0x2118,%rsp
  401039:	89 f5                	mov    %esi,%ebp
  40103b:	64 48 8b 04 25 28 00 	mov    %fs:0x28,%rax
  401042:	00 00 
  401044:	48 89 84 24 08 21 00 	mov    %rax,0x2108(%rsp)
  40104b:	00 
  40104c:	31 c0                	xor    %eax,%eax
  40104e:	89 3d c4 44 20 00    	mov    %edi,0x2044c4(%rip)        # 605518 <check_level>
  401054:	8b 3d 0e 41 20 00    	mov    0x20410e(%rip),%edi        # 605168 <target_id>
  40105a:	e8 6c 1d 00 00       	callq  402dcb <gencookie>
  40105f:	89 05 bf 44 20 00    	mov    %eax,0x2044bf(%rip)        # 605524 <cookie>
  401065:	89 c7                	mov    %eax,%edi
  401067:	e8 5f 1d 00 00       	callq  402dcb <gencookie>
  40106c:	89 05 ae 44 20 00    	mov    %eax,0x2044ae(%rip)        # 605520 <authkey>
  401072:	8b 05 f0 40 20 00    	mov    0x2040f0(%rip),%eax        # 605168 <target_id>
  401078:	8d 78 01             	lea    0x1(%rax),%edi
  40107b:	e8 20 fc ff ff       	callq  400ca0 <srandom@plt>
  401080:	e8 3b fd ff ff       	callq  400dc0 <random@plt>
  401085:	89 c7                	mov    %eax,%edi
  401087:	e8 03 03 00 00       	callq  40138f <scramble>
  40108c:	89 c3                	mov    %eax,%ebx
  40108e:	85 ed                	test   %ebp,%ebp
  401090:	74 18                	je     4010aa <initialize_target+0x7a>
  401092:	bf 00 00 00 00       	mov    $0x0,%edi
  401097:	e8 14 fd ff ff       	callq  400db0 <time@plt>
  40109c:	89 c7                	mov    %eax,%edi
  40109e:	e8 fd fb ff ff       	callq  400ca0 <srandom@plt>
  4010a3:	e8 18 fd ff ff       	callq  400dc0 <random@plt>
  4010a8:	eb 05                	jmp    4010af <initialize_target+0x7f>
  4010aa:	b8 00 00 00 00       	mov    $0x0,%eax
  4010af:	01 c3                	add    %eax,%ebx
  4010b1:	0f b7 db             	movzwl %bx,%ebx
  4010b4:	8d 04 dd 00 01 00 00 	lea    0x100(,%rbx,8),%eax
  4010bb:	89 c0                	mov    %eax,%eax
  4010bd:	48 89 05 dc 43 20 00 	mov    %rax,0x2043dc(%rip)        # 6054a0 <buf_offset>
  4010c4:	c6 05 7d 50 20 00 63 	movb   $0x63,0x20507d(%rip)        # 606148 <target_prefix>
  4010cb:	83 3d d6 43 20 00 00 	cmpl   $0x0,0x2043d6(%rip)        # 6054a8 <notify>
  4010d2:	0f 84 bb 00 00 00    	je     401193 <initialize_target+0x163>
  4010d8:	83 3d 49 44 20 00 00 	cmpl   $0x0,0x204449(%rip)        # 605528 <is_checker>
  4010df:	0f 85 ae 00 00 00    	jne    401193 <initialize_target+0x163>
  4010e5:	be 00 01 00 00       	mov    $0x100,%esi
  4010ea:	48 89 e7             	mov    %rsp,%rdi
  4010ed:	e8 4e fd ff ff       	callq  400e40 <gethostname@plt>
  4010f2:	85 c0                	test   %eax,%eax
  4010f4:	74 25                	je     40111b <initialize_target+0xeb>
  4010f6:	bf 58 2f 40 00       	mov    $0x402f58,%edi
  4010fb:	e8 d0 fb ff ff       	callq  400cd0 <puts@plt>
  401100:	bf 08 00 00 00       	mov    $0x8,%edi
  401105:	e8 46 fd ff ff       	callq  400e50 <exit@plt>
  40110a:	48 89 e6             	mov    %rsp,%rsi
  40110d:	e8 6e fb ff ff       	callq  400c80 <strcasecmp@plt>
  401112:	85 c0                	test   %eax,%eax
  401114:	74 21                	je     401137 <initialize_target+0x107>
  401116:	83 c3 01             	add    $0x1,%ebx
  401119:	eb 05                	jmp    401120 <initialize_target+0xf0>
  40111b:	bb 00 00 00 00       	mov    $0x0,%ebx
  401120:	48 63 c3             	movslq %ebx,%rax
  401123:	48 8b 3c c5 80 51 60 	mov    0x605180(,%rax,8),%rdi
  40112a:	00 
  40112b:	48 85 ff             	test   %rdi,%rdi
  40112e:	75 da                	jne    40110a <initialize_target+0xda>
  401130:	b8 00 00 00 00       	mov    $0x0,%eax
  401135:	eb 05                	jmp    40113c <initialize_target+0x10c>
  401137:	b8 01 00 00 00       	mov    $0x1,%eax
  40113c:	85 c0                	test   %eax,%eax
  40113e:	75 1c                	jne    40115c <initialize_target+0x12c>
  401140:	48 89 e2             	mov    %rsp,%rdx
  401143:	be 90 2f 40 00       	mov    $0x402f90,%esi
  401148:	bf 01 00 00 00       	mov    $0x1,%edi
  40114d:	e8 ae fc ff ff       	callq  400e00 <__printf_chk@plt>
  401152:	bf 08 00 00 00       	mov    $0x8,%edi
  401157:	e8 f4 fc ff ff       	callq  400e50 <exit@plt>
  40115c:	48 8d bc 24 00 01 00 	lea    0x100(%rsp),%rdi
  401163:	00 
  401164:	e8 cc 19 00 00       	callq  402b35 <init_driver>
  401169:	85 c0                	test   %eax,%eax
  40116b:	79 26                	jns    401193 <initialize_target+0x163>
  40116d:	48 8d 94 24 00 01 00 	lea    0x100(%rsp),%rdx
  401174:	00 
  401175:	be d0 2f 40 00       	mov    $0x402fd0,%esi
  40117a:	bf 01 00 00 00       	mov    $0x1,%edi
  40117f:	b8 00 00 00 00       	mov    $0x0,%eax
  401184:	e8 77 fc ff ff       	callq  400e00 <__printf_chk@plt>
  401189:	bf 08 00 00 00       	mov    $0x8,%edi
  40118e:	e8 bd fc ff ff       	callq  400e50 <exit@plt>
  401193:	48 8b 84 24 08 21 00 	mov    0x2108(%rsp),%rax
  40119a:	00 
  40119b:	64 48 33 04 25 28 00 	xor    %fs:0x28,%rax
  4011a2:	00 00 
  4011a4:	74 05                	je     4011ab <initialize_target+0x17b>
  4011a6:	e8 45 fb ff ff       	callq  400cf0 <__stack_chk_fail@plt>
  4011ab:	48 81 c4 18 21 00 00 	add    $0x2118,%rsp
  4011b2:	5b                   	pop    %rbx
  4011b3:	5d                   	pop    %rbp
  4011b4:	c3                   	retq   

00000000004011b5 <main>:
  4011b5:	41 56                	push   %r14
  4011b7:	41 55                	push   %r13
  4011b9:	41 54                	push   %r12
  4011bb:	55                   	push   %rbp
  4011bc:	53                   	push   %rbx
  4011bd:	41 89 fc             	mov    %edi,%r12d
  4011c0:	48 89 f3             	mov    %rsi,%rbx
  4011c3:	be 70 1e 40 00       	mov    $0x401e70,%esi
  4011c8:	bf 0b 00 00 00       	mov    $0xb,%edi
  4011cd:	e8 8e fb ff ff       	callq  400d60 <signal@plt>
  4011d2:	be 22 1e 40 00       	mov    $0x401e22,%esi
  4011d7:	bf 07 00 00 00       	mov    $0x7,%edi
  4011dc:	e8 7f fb ff ff       	callq  400d60 <signal@plt>
  4011e1:	be be 1e 40 00       	mov    $0x401ebe,%esi
  4011e6:	bf 04 00 00 00       	mov    $0x4,%edi
  4011eb:	e8 70 fb ff ff       	callq  400d60 <signal@plt>
  4011f0:	83 3d 31 43 20 00 00 	cmpl   $0x0,0x204331(%rip)        # 605528 <is_checker>
  4011f7:	74 20                	je     401219 <main+0x64>
  4011f9:	be 0c 1f 40 00       	mov    $0x401f0c,%esi
  4011fe:	bf 0e 00 00 00       	mov    $0xe,%edi
  401203:	e8 58 fb ff ff       	callq  400d60 <signal@plt>
  401208:	bf 05 00 00 00       	mov    $0x5,%edi
  40120d:	e8 0e fb ff ff       	callq  400d20 <alarm@plt>
  401212:	bd 9a 30 40 00       	mov    $0x40309a,%ebp
  401217:	eb 05                	jmp    40121e <main+0x69>
  401219:	bd 95 30 40 00       	mov    $0x403095,%ebp
  40121e:	48 8b 05 9b 42 20 00 	mov    0x20429b(%rip),%rax        # 6054c0 <stdin@@GLIBC_2.2.5>
  401225:	48 89 05 e4 42 20 00 	mov    %rax,0x2042e4(%rip)        # 605510 <infile>
  40122c:	41 bd 00 00 00 00    	mov    $0x0,%r13d
  401232:	41 be 00 00 00 00    	mov    $0x0,%r14d
  401238:	e9 c6 00 00 00       	jmpq   401303 <main+0x14e>
  40123d:	83 e8 61             	sub    $0x61,%eax
  401240:	3c 10                	cmp    $0x10,%al
  401242:	0f 87 9c 00 00 00    	ja     4012e4 <main+0x12f>
  401248:	0f b6 c0             	movzbl %al,%eax
  40124b:	ff 24 c5 e0 30 40 00 	jmpq   *0x4030e0(,%rax,8)
  401252:	48 8b 3b             	mov    (%rbx),%rdi
  401255:	e8 4c fd ff ff       	callq  400fa6 <usage>
  40125a:	be ac 32 40 00       	mov    $0x4032ac,%esi
  40125f:	48 8b 3d 62 42 20 00 	mov    0x204262(%rip),%rdi        # 6054c8 <optarg@@GLIBC_2.2.5>
  401266:	e8 a5 fb ff ff       	callq  400e10 <fopen@plt>
  40126b:	48 89 05 9e 42 20 00 	mov    %rax,0x20429e(%rip)        # 605510 <infile>
  401272:	48 85 c0             	test   %rax,%rax
  401275:	0f 85 88 00 00 00    	jne    401303 <main+0x14e>
  40127b:	48 8b 0d 46 42 20 00 	mov    0x204246(%rip),%rcx        # 6054c8 <optarg@@GLIBC_2.2.5>
  401282:	ba a2 30 40 00       	mov    $0x4030a2,%edx
  401287:	be 01 00 00 00       	mov    $0x1,%esi
  40128c:	48 8b 3d 4d 42 20 00 	mov    0x20424d(%rip),%rdi        # 6054e0 <stderr@@GLIBC_2.2.5>
  401293:	e8 d8 fb ff ff       	callq  400e70 <__fprintf_chk@plt>
  401298:	b8 01 00 00 00       	mov    $0x1,%eax
  40129d:	e9 e4 00 00 00       	jmpq   401386 <main+0x1d1>
  4012a2:	ba 10 00 00 00       	mov    $0x10,%edx
  4012a7:	be 00 00 00 00       	mov    $0x0,%esi
  4012ac:	48 8b 3d 15 42 20 00 	mov    0x204215(%rip),%rdi        # 6054c8 <optarg@@GLIBC_2.2.5>
  4012b3:	e8 78 fb ff ff       	callq  400e30 <strtoul@plt>
  4012b8:	41 89 c6             	mov    %eax,%r14d
  4012bb:	eb 46                	jmp    401303 <main+0x14e>
  4012bd:	ba 0a 00 00 00       	mov    $0xa,%edx
  4012c2:	be 00 00 00 00       	mov    $0x0,%esi
  4012c7:	48 8b 3d fa 41 20 00 	mov    0x2041fa(%rip),%rdi        # 6054c8 <optarg@@GLIBC_2.2.5>
  4012ce:	e8 bd fa ff ff       	callq  400d90 <strtol@plt>
  4012d3:	41 89 c5             	mov    %eax,%r13d
  4012d6:	eb 2b                	jmp    401303 <main+0x14e>
  4012d8:	c7 05 c6 41 20 00 00 	movl   $0x0,0x2041c6(%rip)        # 6054a8 <notify>
  4012df:	00 00 00 
  4012e2:	eb 1f                	jmp    401303 <main+0x14e>
  4012e4:	0f be d2             	movsbl %dl,%edx
  4012e7:	be bf 30 40 00       	mov    $0x4030bf,%esi
  4012ec:	bf 01 00 00 00       	mov    $0x1,%edi
  4012f1:	b8 00 00 00 00       	mov    $0x0,%eax
  4012f6:	e8 05 fb ff ff       	callq  400e00 <__printf_chk@plt>
  4012fb:	48 8b 3b             	mov    (%rbx),%rdi
  4012fe:	e8 a3 fc ff ff       	callq  400fa6 <usage>
  401303:	48 89 ea             	mov    %rbp,%rdx
  401306:	48 89 de             	mov    %rbx,%rsi
  401309:	44 89 e7             	mov    %r12d,%edi
  40130c:	e8 0f fb ff ff       	callq  400e20 <getopt@plt>
  401311:	89 c2                	mov    %eax,%edx
  401313:	3c ff                	cmp    $0xff,%al
  401315:	0f 85 22 ff ff ff    	jne    40123d <main+0x88>
  40131b:	be 00 00 00 00       	mov    $0x0,%esi
  401320:	44 89 ef             	mov    %r13d,%edi
  401323:	e8 08 fd ff ff       	callq  401030 <initialize_target>
  401328:	83 3d f9 41 20 00 00 	cmpl   $0x0,0x2041f9(%rip)        # 605528 <is_checker>
  40132f:	74 2a                	je     40135b <main+0x1a6>
  401331:	44 3b 35 e8 41 20 00 	cmp    0x2041e8(%rip),%r14d        # 605520 <authkey>
  401338:	74 21                	je     40135b <main+0x1a6>
  40133a:	44 89 f2             	mov    %r14d,%edx
  40133d:	be f8 2f 40 00       	mov    $0x402ff8,%esi
  401342:	bf 01 00 00 00       	mov    $0x1,%edi
  401347:	b8 00 00 00 00       	mov    $0x0,%eax
  40134c:	e8 af fa ff ff       	callq  400e00 <__printf_chk@plt>
  401351:	b8 00 00 00 00       	mov    $0x0,%eax
  401356:	e8 49 07 00 00       	callq  401aa4 <check_fail>
  40135b:	8b 15 c3 41 20 00    	mov    0x2041c3(%rip),%edx        # 605524 <cookie>
  401361:	be d2 30 40 00       	mov    $0x4030d2,%esi
  401366:	bf 01 00 00 00       	mov    $0x1,%edi
  40136b:	b8 00 00 00 00       	mov    $0x0,%eax
  401370:	e8 8b fa ff ff       	callq  400e00 <__printf_chk@plt>
  401375:	48 8b 3d 24 41 20 00 	mov    0x204124(%rip),%rdi        # 6054a0 <buf_offset>
  40137c:	e8 8b 0c 00 00       	callq  40200c <stable_launch>
  401381:	b8 00 00 00 00       	mov    $0x0,%eax
  401386:	5b                   	pop    %rbx
  401387:	5d                   	pop    %rbp
  401388:	41 5c                	pop    %r12
  40138a:	41 5d                	pop    %r13
  40138c:	41 5e                	pop    %r14
  40138e:	c3                   	retq   

000000000040138f <scramble>:
  40138f:	48 83 ec 38          	sub    $0x38,%rsp
  401393:	64 48 8b 04 25 28 00 	mov    %fs:0x28,%rax
  40139a:	00 00 
  40139c:	48 89 44 24 28       	mov    %rax,0x28(%rsp)
  4013a1:	31 c0                	xor    %eax,%eax
  4013a3:	eb 10                	jmp    4013b5 <scramble+0x26>
  4013a5:	69 d0 6a 07 00 00    	imul   $0x76a,%eax,%edx
  4013ab:	01 fa                	add    %edi,%edx
  4013ad:	89 c1                	mov    %eax,%ecx
  4013af:	89 14 8c             	mov    %edx,(%rsp,%rcx,4)
  4013b2:	83 c0 01             	add    $0x1,%eax
  4013b5:	83 f8 09             	cmp    $0x9,%eax
  4013b8:	76 eb                	jbe    4013a5 <scramble+0x16>
  4013ba:	8b 44 24 0c          	mov    0xc(%rsp),%eax
  4013be:	69 c0 d8 7b 00 00    	imul   $0x7bd8,%eax,%eax
  4013c4:	89 44 24 0c          	mov    %eax,0xc(%rsp)
  4013c8:	8b 44 24 04          	mov    0x4(%rsp),%eax
  4013cc:	69 c0 9d 3f 00 00    	imul   $0x3f9d,%eax,%eax
  4013d2:	89 44 24 04          	mov    %eax,0x4(%rsp)
  4013d6:	8b 44 24 0c          	mov    0xc(%rsp),%eax
  4013da:	69 c0 e8 31 00 00    	imul   $0x31e8,%eax,%eax
  4013e0:	89 44 24 0c          	mov    %eax,0xc(%rsp)
  4013e4:	8b 44 24 24          	mov    0x24(%rsp),%eax
  4013e8:	69 c0 a5 55 00 00    	imul   $0x55a5,%eax,%eax
  4013ee:	89 44 24 24          	mov    %eax,0x24(%rsp)
  4013f2:	8b 44 24 10          	mov    0x10(%rsp),%eax
  4013f6:	69 c0 51 63 00 00    	imul   $0x6351,%eax,%eax
  4013fc:	89 44 24 10          	mov    %eax,0x10(%rsp)
  401400:	8b 44 24 04          	mov    0x4(%rsp),%eax
  401404:	69 c0 37 9c 00 00    	imul   $0x9c37,%eax,%eax
  40140a:	89 44 24 04          	mov    %eax,0x4(%rsp)
  40140e:	8b 44 24 08          	mov    0x8(%rsp),%eax
  401412:	69 c0 95 33 00 00    	imul   $0x3395,%eax,%eax
  401418:	89 44 24 08          	mov    %eax,0x8(%rsp)
  40141c:	8b 44 24 0c          	mov    0xc(%rsp),%eax
  401420:	69 c0 b3 7b 00 00    	imul   $0x7bb3,%eax,%eax
  401426:	89 44 24 0c          	mov    %eax,0xc(%rsp)
  40142a:	8b 44 24 04          	mov    0x4(%rsp),%eax
  40142e:	69 c0 d6 c0 00 00    	imul   $0xc0d6,%eax,%eax
  401434:	89 44 24 04          	mov    %eax,0x4(%rsp)
  401438:	8b 44 24 10          	mov    0x10(%rsp),%eax
  40143c:	69 c0 55 5f 00 00    	imul   $0x5f55,%eax,%eax
  401442:	89 44 24 10          	mov    %eax,0x10(%rsp)
  401446:	8b 44 24 20          	mov    0x20(%rsp),%eax
  40144a:	69 c0 50 57 00 00    	imul   $0x5750,%eax,%eax
  401450:	89 44 24 20          	mov    %eax,0x20(%rsp)
  401454:	8b 44 24 20          	mov    0x20(%rsp),%eax
  401458:	69 c0 bb da 00 00    	imul   $0xdabb,%eax,%eax
  40145e:	89 44 24 20          	mov    %eax,0x20(%rsp)
  401462:	8b 44 24 04          	mov    0x4(%rsp),%eax
  401466:	69 c0 93 28 00 00    	imul   $0x2893,%eax,%eax
  40146c:	89 44 24 04          	mov    %eax,0x4(%rsp)
  401470:	8b 44 24 04          	mov    0x4(%rsp),%eax
  401474:	69 c0 df 5a 00 00    	imul   $0x5adf,%eax,%eax
  40147a:	89 44 24 04          	mov    %eax,0x4(%rsp)
  40147e:	8b 44 24 14          	mov    0x14(%rsp),%eax
  401482:	69 c0 ac 02 00 00    	imul   $0x2ac,%eax,%eax
  401488:	89 44 24 14          	mov    %eax,0x14(%rsp)
  40148c:	8b 44 24 10          	mov    0x10(%rsp),%eax
  401490:	69 c0 df 88 00 00    	imul   $0x88df,%eax,%eax
  401496:	89 44 24 10          	mov    %eax,0x10(%rsp)
  40149a:	8b 44 24 18          	mov    0x18(%rsp),%eax
  40149e:	69 c0 8a 0d 00 00    	imul   $0xd8a,%eax,%eax
  4014a4:	89 44 24 18          	mov    %eax,0x18(%rsp)
  4014a8:	8b 44 24 08          	mov    0x8(%rsp),%eax
  4014ac:	69 c0 33 6a 00 00    	imul   $0x6a33,%eax,%eax
  4014b2:	89 44 24 08          	mov    %eax,0x8(%rsp)
  4014b6:	8b 04 24             	mov    (%rsp),%eax
  4014b9:	69 c0 3a 3a 00 00    	imul   $0x3a3a,%eax,%eax
  4014bf:	89 04 24             	mov    %eax,(%rsp)
  4014c2:	8b 44 24 04          	mov    0x4(%rsp),%eax
  4014c6:	69 c0 60 70 00 00    	imul   $0x7060,%eax,%eax
  4014cc:	89 44 24 04          	mov    %eax,0x4(%rsp)
  4014d0:	8b 44 24 0c          	mov    0xc(%rsp),%eax
  4014d4:	69 c0 82 60 00 00    	imul   $0x6082,%eax,%eax
  4014da:	89 44 24 0c          	mov    %eax,0xc(%rsp)
  4014de:	8b 44 24 20          	mov    0x20(%rsp),%eax
  4014e2:	69 c0 08 b7 00 00    	imul   $0xb708,%eax,%eax
  4014e8:	89 44 24 20          	mov    %eax,0x20(%rsp)
  4014ec:	8b 44 24 0c          	mov    0xc(%rsp),%eax
  4014f0:	69 c0 bb 4f 00 00    	imul   $0x4fbb,%eax,%eax
  4014f6:	89 44 24 0c          	mov    %eax,0xc(%rsp)
  4014fa:	8b 44 24 14          	mov    0x14(%rsp),%eax
  4014fe:	69 c0 d5 21 00 00    	imul   $0x21d5,%eax,%eax
  401504:	89 44 24 14          	mov    %eax,0x14(%rsp)
  401508:	8b 04 24             	mov    (%rsp),%eax
  40150b:	69 c0 59 f2 00 00    	imul   $0xf259,%eax,%eax
  401511:	89 04 24             	mov    %eax,(%rsp)
  401514:	8b 44 24 04          	mov    0x4(%rsp),%eax
  401518:	69 c0 6f ef 00 00    	imul   $0xef6f,%eax,%eax
  40151e:	89 44 24 04          	mov    %eax,0x4(%rsp)
  401522:	8b 44 24 1c          	mov    0x1c(%rsp),%eax
  401526:	69 c0 3a 9d 00 00    	imul   $0x9d3a,%eax,%eax
  40152c:	89 44 24 1c          	mov    %eax,0x1c(%rsp)
  401530:	8b 44 24 0c          	mov    0xc(%rsp),%eax
  401534:	69 c0 db 17 00 00    	imul   $0x17db,%eax,%eax
  40153a:	89 44 24 0c          	mov    %eax,0xc(%rsp)
  40153e:	8b 44 24 18          	mov    0x18(%rsp),%eax
  401542:	69 c0 a6 18 00 00    	imul   $0x18a6,%eax,%eax
  401548:	89 44 24 18          	mov    %eax,0x18(%rsp)
  40154c:	8b 04 24             	mov    (%rsp),%eax
  40154f:	69 c0 42 47 00 00    	imul   $0x4742,%eax,%eax
  401555:	89 04 24             	mov    %eax,(%rsp)
  401558:	8b 44 24 18          	mov    0x18(%rsp),%eax
  40155c:	69 c0 a3 c6 00 00    	imul   $0xc6a3,%eax,%eax
  401562:	89 44 24 18          	mov    %eax,0x18(%rsp)
  401566:	8b 44 24 0c          	mov    0xc(%rsp),%eax
  40156a:	69 c0 d6 99 00 00    	imul   $0x99d6,%eax,%eax
  401570:	89 44 24 0c          	mov    %eax,0xc(%rsp)
  401574:	8b 44 24 04          	mov    0x4(%rsp),%eax
  401578:	69 c0 9e 98 00 00    	imul   $0x989e,%eax,%eax
  40157e:	89 44 24 04          	mov    %eax,0x4(%rsp)
  401582:	8b 44 24 18          	mov    0x18(%rsp),%eax
  401586:	69 c0 a0 13 00 00    	imul   $0x13a0,%eax,%eax
  40158c:	89 44 24 18          	mov    %eax,0x18(%rsp)
  401590:	8b 04 24             	mov    (%rsp),%eax
  401593:	69 c0 e2 c3 00 00    	imul   $0xc3e2,%eax,%eax
  401599:	89 04 24             	mov    %eax,(%rsp)
  40159c:	8b 44 24 20          	mov    0x20(%rsp),%eax
  4015a0:	69 c0 63 70 00 00    	imul   $0x7063,%eax,%eax
  4015a6:	89 44 24 20          	mov    %eax,0x20(%rsp)
  4015aa:	8b 44 24 08          	mov    0x8(%rsp),%eax
  4015ae:	69 c0 97 90 00 00    	imul   $0x9097,%eax,%eax
  4015b4:	89 44 24 08          	mov    %eax,0x8(%rsp)
  4015b8:	8b 44 24 04          	mov    0x4(%rsp),%eax
  4015bc:	69 c0 7c b8 00 00    	imul   $0xb87c,%eax,%eax
  4015c2:	89 44 24 04          	mov    %eax,0x4(%rsp)
  4015c6:	8b 44 24 10          	mov    0x10(%rsp),%eax
  4015ca:	69 c0 27 5a 00 00    	imul   $0x5a27,%eax,%eax
  4015d0:	89 44 24 10          	mov    %eax,0x10(%rsp)
  4015d4:	8b 44 24 10          	mov    0x10(%rsp),%eax
  4015d8:	69 c0 e4 f0 00 00    	imul   $0xf0e4,%eax,%eax
  4015de:	89 44 24 10          	mov    %eax,0x10(%rsp)
  4015e2:	8b 04 24             	mov    (%rsp),%eax
  4015e5:	69 c0 7c 5b 00 00    	imul   $0x5b7c,%eax,%eax
  4015eb:	89 04 24             	mov    %eax,(%rsp)
  4015ee:	8b 44 24 14          	mov    0x14(%rsp),%eax
  4015f2:	69 c0 29 96 00 00    	imul   $0x9629,%eax,%eax
  4015f8:	89 44 24 14          	mov    %eax,0x14(%rsp)
  4015fc:	8b 44 24 18          	mov    0x18(%rsp),%eax
  401600:	69 c0 7f aa 00 00    	imul   $0xaa7f,%eax,%eax
  401606:	89 44 24 18          	mov    %eax,0x18(%rsp)
  40160a:	8b 44 24 1c          	mov    0x1c(%rsp),%eax
  40160e:	69 c0 84 be 00 00    	imul   $0xbe84,%eax,%eax
  401614:	89 44 24 1c          	mov    %eax,0x1c(%rsp)
  401618:	8b 44 24 1c          	mov    0x1c(%rsp),%eax
  40161c:	69 c0 be 20 00 00    	imul   $0x20be,%eax,%eax
  401622:	89 44 24 1c          	mov    %eax,0x1c(%rsp)
  401626:	8b 44 24 1c          	mov    0x1c(%rsp),%eax
  40162a:	69 c0 77 de 00 00    	imul   $0xde77,%eax,%eax
  401630:	89 44 24 1c          	mov    %eax,0x1c(%rsp)
  401634:	8b 44 24 04          	mov    0x4(%rsp),%eax
  401638:	69 c0 e9 d5 00 00    	imul   $0xd5e9,%eax,%eax
  40163e:	89 44 24 04          	mov    %eax,0x4(%rsp)
  401642:	8b 44 24 14          	mov    0x14(%rsp),%eax
  401646:	69 c0 8f bb 00 00    	imul   $0xbb8f,%eax,%eax
  40164c:	89 44 24 14          	mov    %eax,0x14(%rsp)
  401650:	8b 44 24 24          	mov    0x24(%rsp),%eax
  401654:	69 c0 56 7c 00 00    	imul   $0x7c56,%eax,%eax
  40165a:	89 44 24 24          	mov    %eax,0x24(%rsp)
  40165e:	8b 44 24 18          	mov    0x18(%rsp),%eax
  401662:	69 c0 60 41 00 00    	imul   $0x4160,%eax,%eax
  401668:	89 44 24 18          	mov    %eax,0x18(%rsp)
  40166c:	8b 44 24 04          	mov    0x4(%rsp),%eax
  401670:	69 c0 2f 53 00 00    	imul   $0x532f,%eax,%eax
  401676:	89 44 24 04          	mov    %eax,0x4(%rsp)
  40167a:	8b 44 24 10          	mov    0x10(%rsp),%eax
  40167e:	69 c0 9d 64 00 00    	imul   $0x649d,%eax,%eax
  401684:	89 44 24 10          	mov    %eax,0x10(%rsp)
  401688:	8b 44 24 14          	mov    0x14(%rsp),%eax
  40168c:	69 c0 2f d9 00 00    	imul   $0xd92f,%eax,%eax
  401692:	89 44 24 14          	mov    %eax,0x14(%rsp)
  401696:	8b 44 24 0c          	mov    0xc(%rsp),%eax
  40169a:	69 c0 19 c4 00 00    	imul   $0xc419,%eax,%eax
  4016a0:	89 44 24 0c          	mov    %eax,0xc(%rsp)
  4016a4:	8b 44 24 10          	mov    0x10(%rsp),%eax
  4016a8:	69 c0 6b f7 00 00    	imul   $0xf76b,%eax,%eax
  4016ae:	89 44 24 10          	mov    %eax,0x10(%rsp)
  4016b2:	8b 44 24 18          	mov    0x18(%rsp),%eax
  4016b6:	69 c0 d7 7f 00 00    	imul   $0x7fd7,%eax,%eax
  4016bc:	89 44 24 18          	mov    %eax,0x18(%rsp)
  4016c0:	8b 44 24 14          	mov    0x14(%rsp),%eax
  4016c4:	69 c0 52 95 00 00    	imul   $0x9552,%eax,%eax
  4016ca:	89 44 24 14          	mov    %eax,0x14(%rsp)
  4016ce:	8b 44 24 0c          	mov    0xc(%rsp),%eax
  4016d2:	69 c0 9f 4b 00 00    	imul   $0x4b9f,%eax,%eax
  4016d8:	89 44 24 0c          	mov    %eax,0xc(%rsp)
  4016dc:	8b 44 24 04          	mov    0x4(%rsp),%eax
  4016e0:	69 c0 05 c4 00 00    	imul   $0xc405,%eax,%eax
  4016e6:	89 44 24 04          	mov    %eax,0x4(%rsp)
  4016ea:	8b 04 24             	mov    (%rsp),%eax
  4016ed:	69 c0 f6 02 00 00    	imul   $0x2f6,%eax,%eax
  4016f3:	89 04 24             	mov    %eax,(%rsp)
  4016f6:	8b 44 24 24          	mov    0x24(%rsp),%eax
  4016fa:	69 c0 ea 0f 00 00    	imul   $0xfea,%eax,%eax
  401700:	89 44 24 24          	mov    %eax,0x24(%rsp)
  401704:	8b 44 24 04          	mov    0x4(%rsp),%eax
  401708:	69 c0 25 cc 00 00    	imul   $0xcc25,%eax,%eax
  40170e:	89 44 24 04          	mov    %eax,0x4(%rsp)
  401712:	8b 04 24             	mov    (%rsp),%eax
  401715:	69 c0 ba 59 00 00    	imul   $0x59ba,%eax,%eax
  40171b:	89 04 24             	mov    %eax,(%rsp)
  40171e:	8b 44 24 18          	mov    0x18(%rsp),%eax
  401722:	69 c0 5b 54 00 00    	imul   $0x545b,%eax,%eax
  401728:	89 44 24 18          	mov    %eax,0x18(%rsp)
  40172c:	8b 44 24 0c          	mov    0xc(%rsp),%eax
  401730:	69 c0 e3 56 00 00    	imul   $0x56e3,%eax,%eax
  401736:	89 44 24 0c          	mov    %eax,0xc(%rsp)
  40173a:	8b 04 24             	mov    (%rsp),%eax
  40173d:	69 c0 49 16 00 00    	imul   $0x1649,%eax,%eax
  401743:	89 04 24             	mov    %eax,(%rsp)
  401746:	8b 44 24 08          	mov    0x8(%rsp),%eax
  40174a:	69 c0 7e 47 00 00    	imul   $0x477e,%eax,%eax
  401750:	89 44 24 08          	mov    %eax,0x8(%rsp)
  401754:	8b 44 24 08          	mov    0x8(%rsp),%eax
  401758:	69 c0 d9 8d 00 00    	imul   $0x8dd9,%eax,%eax
  40175e:	89 44 24 08          	mov    %eax,0x8(%rsp)
  401762:	8b 44 24 08          	mov    0x8(%rsp),%eax
  401766:	69 c0 ff 97 00 00    	imul   $0x97ff,%eax,%eax
  40176c:	89 44 24 08          	mov    %eax,0x8(%rsp)
  401770:	8b 44 24 04          	mov    0x4(%rsp),%eax
  401774:	69 c0 05 54 00 00    	imul   $0x5405,%eax,%eax
  40177a:	89 44 24 04          	mov    %eax,0x4(%rsp)
  40177e:	8b 44 24 10          	mov    0x10(%rsp),%eax
  401782:	69 c0 f0 06 00 00    	imul   $0x6f0,%eax,%eax
  401788:	89 44 24 10          	mov    %eax,0x10(%rsp)
  40178c:	8b 44 24 10          	mov    0x10(%rsp),%eax
  401790:	69 c0 53 e2 00 00    	imul   $0xe253,%eax,%eax
  401796:	89 44 24 10          	mov    %eax,0x10(%rsp)
  40179a:	8b 04 24             	mov    (%rsp),%eax
  40179d:	69 c0 dd e9 00 00    	imul   $0xe9dd,%eax,%eax
  4017a3:	89 04 24             	mov    %eax,(%rsp)
  4017a6:	8b 44 24 1c          	mov    0x1c(%rsp),%eax
  4017aa:	69 c0 13 dc 00 00    	imul   $0xdc13,%eax,%eax
  4017b0:	89 44 24 1c          	mov    %eax,0x1c(%rsp)
  4017b4:	8b 44 24 04          	mov    0x4(%rsp),%eax
  4017b8:	69 c0 15 38 00 00    	imul   $0x3815,%eax,%eax
  4017be:	89 44 24 04          	mov    %eax,0x4(%rsp)
  4017c2:	8b 04 24             	mov    (%rsp),%eax
  4017c5:	69 c0 a7 92 00 00    	imul   $0x92a7,%eax,%eax
  4017cb:	89 04 24             	mov    %eax,(%rsp)
  4017ce:	8b 44 24 18          	mov    0x18(%rsp),%eax
  4017d2:	69 c0 76 c0 00 00    	imul   $0xc076,%eax,%eax
  4017d8:	89 44 24 18          	mov    %eax,0x18(%rsp)
  4017dc:	8b 44 24 18          	mov    0x18(%rsp),%eax
  4017e0:	69 c0 d3 2d 00 00    	imul   $0x2dd3,%eax,%eax
  4017e6:	89 44 24 18          	mov    %eax,0x18(%rsp)
  4017ea:	8b 44 24 10          	mov    0x10(%rsp),%eax
  4017ee:	69 c0 81 e6 00 00    	imul   $0xe681,%eax,%eax
  4017f4:	89 44 24 10          	mov    %eax,0x10(%rsp)
  4017f8:	ba 00 00 00 00       	mov    $0x0,%edx
  4017fd:	b8 00 00 00 00       	mov    $0x0,%eax
  401802:	eb 0a                	jmp    40180e <scramble+0x47f>
  401804:	89 d1                	mov    %edx,%ecx
  401806:	8b 0c 8c             	mov    (%rsp,%rcx,4),%ecx
  401809:	01 c8                	add    %ecx,%eax
  40180b:	83 c2 01             	add    $0x1,%edx
  40180e:	83 fa 09             	cmp    $0x9,%edx
  401811:	76 f1                	jbe    401804 <scramble+0x475>
  401813:	48 8b 74 24 28       	mov    0x28(%rsp),%rsi
  401818:	64 48 33 34 25 28 00 	xor    %fs:0x28,%rsi
  40181f:	00 00 
  401821:	74 05                	je     401828 <scramble+0x499>
  401823:	e8 c8 f4 ff ff       	callq  400cf0 <__stack_chk_fail@plt>
  401828:	48 83 c4 38          	add    $0x38,%rsp
  40182c:	c3                   	retq   

000000000040182d <getbuf>:
  40182d:	48 83 ec 28          	sub    $0x28,%rsp
  401831:	48 89 e7             	mov    %rsp,%rdi
  401834:	e8 a0 02 00 00       	callq  401ad9 <Gets>
  401839:	b8 01 00 00 00       	mov    $0x1,%eax
  40183e:	48 83 c4 28          	add    $0x28,%rsp
  401842:	c3                   	retq   

0000000000401843 <touch1>:
  401843:	48 83 ec 08          	sub    $0x8,%rsp
  401847:	c7 05 cb 3c 20 00 01 	movl   $0x1,0x203ccb(%rip)        # 60551c <vlevel>
  40184e:	00 00 00 
  401851:	bf bf 32 40 00       	mov    $0x4032bf,%edi
  401856:	e8 75 f4 ff ff       	callq  400cd0 <puts@plt>
  40185b:	bf 01 00 00 00       	mov    $0x1,%edi
  401860:	e8 b9 04 00 00       	callq  401d1e <validate>
  401865:	bf 00 00 00 00       	mov    $0x0,%edi
  40186a:	e8 e1 f5 ff ff       	callq  400e50 <exit@plt>

000000000040186f <touch2>:
  40186f:	48 83 ec 08          	sub    $0x8,%rsp
  401873:	89 fa                	mov    %edi,%edx
  401875:	c7 05 9d 3c 20 00 02 	movl   $0x2,0x203c9d(%rip)        # 60551c <vlevel>
  40187c:	00 00 00 
  40187f:	39 3d 9f 3c 20 00    	cmp    %edi,0x203c9f(%rip)        # 605524 <cookie>
  401885:	75 20                	jne    4018a7 <touch2+0x38>
  401887:	be e0 32 40 00       	mov    $0x4032e0,%esi
  40188c:	bf 01 00 00 00       	mov    $0x1,%edi
  401891:	b8 00 00 00 00       	mov    $0x0,%eax
  401896:	e8 65 f5 ff ff       	callq  400e00 <__printf_chk@plt>
  40189b:	bf 02 00 00 00       	mov    $0x2,%edi
  4018a0:	e8 79 04 00 00       	callq  401d1e <validate>
  4018a5:	eb 1e                	jmp    4018c5 <touch2+0x56>
  4018a7:	be 08 33 40 00       	mov    $0x403308,%esi
  4018ac:	bf 01 00 00 00       	mov    $0x1,%edi
  4018b1:	b8 00 00 00 00       	mov    $0x0,%eax
  4018b6:	e8 45 f5 ff ff       	callq  400e00 <__printf_chk@plt>
  4018bb:	bf 02 00 00 00       	mov    $0x2,%edi
  4018c0:	e8 35 05 00 00       	callq  401dfa <fail>
  4018c5:	bf 00 00 00 00       	mov    $0x0,%edi
  4018ca:	e8 81 f5 ff ff       	callq  400e50 <exit@plt>

00000000004018cf <hexmatch>:
  4018cf:	55                   	push   %rbp
  4018d0:	53                   	push   %rbx
  4018d1:	48 81 ec 88 00 00 00 	sub    $0x88,%rsp
  4018d8:	89 fb                	mov    %edi,%ebx
  4018da:	48 89 f5             	mov    %rsi,%rbp
  4018dd:	64 48 8b 04 25 28 00 	mov    %fs:0x28,%rax
  4018e4:	00 00 
  4018e6:	48 89 44 24 78       	mov    %rax,0x78(%rsp)
  4018eb:	31 c0                	xor    %eax,%eax
  4018ed:	e8 ce f4 ff ff       	callq  400dc0 <random@plt>
  4018f2:	48 89 c1             	mov    %rax,%rcx
  4018f5:	48 ba 0b d7 a3 70 3d 	movabs $0xa3d70a3d70a3d70b,%rdx
  4018fc:	0a d7 a3 
  4018ff:	48 f7 ea             	imul   %rdx
  401902:	48 01 ca             	add    %rcx,%rdx
  401905:	48 c1 fa 06          	sar    $0x6,%rdx
  401909:	48 89 c8             	mov    %rcx,%rax
  40190c:	48 c1 f8 3f          	sar    $0x3f,%rax
  401910:	48 29 c2             	sub    %rax,%rdx
  401913:	48 8d 04 92          	lea    (%rdx,%rdx,4),%rax
  401917:	48 8d 14 80          	lea    (%rax,%rax,4),%rdx
  40191b:	48 8d 04 95 00 00 00 	lea    0x0(,%rdx,4),%rax
  401922:	00 
  401923:	48 89 ca             	mov    %rcx,%rdx
  401926:	48 29 c2             	sub    %rax,%rdx
  401929:	48 8d 34 14          	lea    (%rsp,%rdx,1),%rsi
  40192d:	c6 46 08 00          	movb   $0x0,0x8(%rsi)
  401931:	ba 07 00 00 00       	mov    $0x7,%edx
  401936:	eb 31                	jmp    401969 <hexmatch+0x9a>
  401938:	8d 0c 95 00 00 00 00 	lea    0x0(,%rdx,4),%ecx
  40193f:	89 d8                	mov    %ebx,%eax
  401941:	d3 e8                	shr    %cl,%eax
  401943:	83 e0 0f             	and    $0xf,%eax
  401946:	3c 09                	cmp    $0x9,%al
  401948:	77 0f                	ja     401959 <hexmatch+0x8a>
  40194a:	b9 07 00 00 00       	mov    $0x7,%ecx
  40194f:	29 d1                	sub    %edx,%ecx
  401951:	83 c0 30             	add    $0x30,%eax
  401954:	88 04 0e             	mov    %al,(%rsi,%rcx,1)
  401957:	eb 0d                	jmp    401966 <hexmatch+0x97>
  401959:	b9 07 00 00 00       	mov    $0x7,%ecx
  40195e:	29 d1                	sub    %edx,%ecx
  401960:	83 c0 57             	add    $0x57,%eax
  401963:	88 04 0e             	mov    %al,(%rsi,%rcx,1)
  401966:	83 ea 01             	sub    $0x1,%edx
  401969:	83 fa 07             	cmp    $0x7,%edx
  40196c:	76 ca                	jbe    401938 <hexmatch+0x69>
  40196e:	ba 09 00 00 00       	mov    $0x9,%edx
  401973:	48 89 ef             	mov    %rbp,%rdi
  401976:	e8 35 f3 ff ff       	callq  400cb0 <strncmp@plt>
  40197b:	85 c0                	test   %eax,%eax
  40197d:	0f 94 c0             	sete   %al
  401980:	0f b6 c0             	movzbl %al,%eax
  401983:	48 8b 7c 24 78       	mov    0x78(%rsp),%rdi
  401988:	64 48 33 3c 25 28 00 	xor    %fs:0x28,%rdi
  40198f:	00 00 
  401991:	74 05                	je     401998 <hexmatch+0xc9>
  401993:	e8 58 f3 ff ff       	callq  400cf0 <__stack_chk_fail@plt>
  401998:	48 81 c4 88 00 00 00 	add    $0x88,%rsp
  40199f:	5b                   	pop    %rbx
  4019a0:	5d                   	pop    %rbp
  4019a1:	c3                   	retq   

00000000004019a2 <touch3>:
  4019a2:	53                   	push   %rbx
  4019a3:	48 89 fb             	mov    %rdi,%rbx
  4019a6:	c7 05 6c 3b 20 00 03 	movl   $0x3,0x203b6c(%rip)        # 60551c <vlevel>
  4019ad:	00 00 00 
  4019b0:	48 89 fe             	mov    %rdi,%rsi
  4019b3:	8b 3d 6b 3b 20 00    	mov    0x203b6b(%rip),%edi        # 605524 <cookie>
  4019b9:	e8 11 ff ff ff       	callq  4018cf <hexmatch>
  4019be:	85 c0                	test   %eax,%eax
  4019c0:	74 23                	je     4019e5 <touch3+0x43>
  4019c2:	48 89 da             	mov    %rbx,%rdx
  4019c5:	be 30 33 40 00       	mov    $0x403330,%esi
  4019ca:	bf 01 00 00 00       	mov    $0x1,%edi
  4019cf:	b8 00 00 00 00       	mov    $0x0,%eax
  4019d4:	e8 27 f4 ff ff       	callq  400e00 <__printf_chk@plt>
  4019d9:	bf 03 00 00 00       	mov    $0x3,%edi
  4019de:	e8 3b 03 00 00       	callq  401d1e <validate>
  4019e3:	eb 21                	jmp    401a06 <touch3+0x64>
  4019e5:	48 89 da             	mov    %rbx,%rdx
  4019e8:	be 58 33 40 00       	mov    $0x403358,%esi
  4019ed:	bf 01 00 00 00       	mov    $0x1,%edi
  4019f2:	b8 00 00 00 00       	mov    $0x0,%eax
  4019f7:	e8 04 f4 ff ff       	callq  400e00 <__printf_chk@plt>
  4019fc:	bf 03 00 00 00       	mov    $0x3,%edi
  401a01:	e8 f4 03 00 00       	callq  401dfa <fail>
  401a06:	bf 00 00 00 00       	mov    $0x0,%edi
  401a0b:	e8 40 f4 ff ff       	callq  400e50 <exit@plt>

0000000000401a10 <test>:
  401a10:	48 83 ec 08          	sub    $0x8,%rsp
  401a14:	b8 00 00 00 00       	mov    $0x0,%eax
  401a19:	e8 0f fe ff ff       	callq  40182d <getbuf>
  401a1e:	89 c2                	mov    %eax,%edx
  401a20:	be 80 33 40 00       	mov    $0x403380,%esi
  401a25:	bf 01 00 00 00       	mov    $0x1,%edi
  401a2a:	b8 00 00 00 00       	mov    $0x0,%eax
  401a2f:	e8 cc f3 ff ff       	callq  400e00 <__printf_chk@plt>
  401a34:	48 83 c4 08          	add    $0x8,%rsp
  401a38:	c3                   	retq   

0000000000401a39 <save_char>:
  401a39:	8b 05 05 47 20 00    	mov    0x204705(%rip),%eax        # 606144 <gets_cnt>
  401a3f:	3d ff 03 00 00       	cmp    $0x3ff,%eax
  401a44:	7f 49                	jg     401a8f <save_char+0x56>
  401a46:	8d 14 40             	lea    (%rax,%rax,2),%edx
  401a49:	89 f9                	mov    %edi,%ecx
  401a4b:	c0 e9 04             	shr    $0x4,%cl
  401a4e:	83 e1 0f             	and    $0xf,%ecx
  401a51:	0f b6 b1 a0 36 40 00 	movzbl 0x4036a0(%rcx),%esi
  401a58:	48 63 ca             	movslq %edx,%rcx
  401a5b:	40 88 b1 40 55 60 00 	mov    %sil,0x605540(%rcx)
  401a62:	8d 4a 01             	lea    0x1(%rdx),%ecx
  401a65:	83 e7 0f             	and    $0xf,%edi
  401a68:	0f b6 b7 a0 36 40 00 	movzbl 0x4036a0(%rdi),%esi
  401a6f:	48 63 c9             	movslq %ecx,%rcx
  401a72:	40 88 b1 40 55 60 00 	mov    %sil,0x605540(%rcx)
  401a79:	83 c2 02             	add    $0x2,%edx
  401a7c:	48 63 d2             	movslq %edx,%rdx
  401a7f:	c6 82 40 55 60 00 20 	movb   $0x20,0x605540(%rdx)
  401a86:	83 c0 01             	add    $0x1,%eax
  401a89:	89 05 b5 46 20 00    	mov    %eax,0x2046b5(%rip)        # 606144 <gets_cnt>
  401a8f:	f3 c3                	repz retq 

0000000000401a91 <save_term>:
  401a91:	8b 05 ad 46 20 00    	mov    0x2046ad(%rip),%eax        # 606144 <gets_cnt>
  401a97:	8d 04 40             	lea    (%rax,%rax,2),%eax
  401a9a:	48 98                	cltq   
  401a9c:	c6 80 40 55 60 00 00 	movb   $0x0,0x605540(%rax)
  401aa3:	c3                   	retq   

0000000000401aa4 <check_fail>:
  401aa4:	48 83 ec 08          	sub    $0x8,%rsp
  401aa8:	0f be 15 99 46 20 00 	movsbl 0x204699(%rip),%edx        # 606148 <target_prefix>
  401aaf:	41 b8 40 55 60 00    	mov    $0x605540,%r8d
  401ab5:	8b 0d 5d 3a 20 00    	mov    0x203a5d(%rip),%ecx        # 605518 <check_level>
  401abb:	be a3 33 40 00       	mov    $0x4033a3,%esi
  401ac0:	bf 01 00 00 00       	mov    $0x1,%edi
  401ac5:	b8 00 00 00 00       	mov    $0x0,%eax
  401aca:	e8 31 f3 ff ff       	callq  400e00 <__printf_chk@plt>
  401acf:	bf 01 00 00 00       	mov    $0x1,%edi
  401ad4:	e8 77 f3 ff ff       	callq  400e50 <exit@plt>

0000000000401ad9 <Gets>:
  401ad9:	41 54                	push   %r12
  401adb:	55                   	push   %rbp
  401adc:	53                   	push   %rbx
  401add:	49 89 fc             	mov    %rdi,%r12
  401ae0:	c7 05 5a 46 20 00 00 	movl   $0x0,0x20465a(%rip)        # 606144 <gets_cnt>
  401ae7:	00 00 00 
  401aea:	48 89 fb             	mov    %rdi,%rbx
  401aed:	eb 11                	jmp    401b00 <Gets+0x27>
  401aef:	48 8d 6b 01          	lea    0x1(%rbx),%rbp
  401af3:	88 03                	mov    %al,(%rbx)
  401af5:	0f b6 f8             	movzbl %al,%edi
  401af8:	e8 3c ff ff ff       	callq  401a39 <save_char>
  401afd:	48 89 eb             	mov    %rbp,%rbx
  401b00:	48 8b 3d 09 3a 20 00 	mov    0x203a09(%rip),%rdi        # 605510 <infile>
  401b07:	e8 c4 f2 ff ff       	callq  400dd0 <_IO_getc@plt>
  401b0c:	83 f8 ff             	cmp    $0xffffffff,%eax
  401b0f:	74 05                	je     401b16 <Gets+0x3d>
  401b11:	83 f8 0a             	cmp    $0xa,%eax
  401b14:	75 d9                	jne    401aef <Gets+0x16>
  401b16:	c6 03 00             	movb   $0x0,(%rbx)
  401b19:	b8 00 00 00 00       	mov    $0x0,%eax
  401b1e:	e8 6e ff ff ff       	callq  401a91 <save_term>
  401b23:	4c 89 e0             	mov    %r12,%rax
  401b26:	5b                   	pop    %rbx
  401b27:	5d                   	pop    %rbp
  401b28:	41 5c                	pop    %r12
  401b2a:	c3                   	retq   

0000000000401b2b <notify_server>:
  401b2b:	53                   	push   %rbx
  401b2c:	48 81 ec 10 40 00 00 	sub    $0x4010,%rsp
  401b33:	64 48 8b 04 25 28 00 	mov    %fs:0x28,%rax
  401b3a:	00 00 
  401b3c:	48 89 84 24 08 40 00 	mov    %rax,0x4008(%rsp)
  401b43:	00 
  401b44:	31 c0                	xor    %eax,%eax
  401b46:	83 3d db 39 20 00 00 	cmpl   $0x0,0x2039db(%rip)        # 605528 <is_checker>
  401b4d:	0f 85 aa 01 00 00    	jne    401cfd <notify_server+0x1d2>
  401b53:	89 fb                	mov    %edi,%ebx
  401b55:	8b 05 e9 45 20 00    	mov    0x2045e9(%rip),%eax        # 606144 <gets_cnt>
  401b5b:	83 c0 64             	add    $0x64,%eax
  401b5e:	3d 00 20 00 00       	cmp    $0x2000,%eax
  401b63:	7e 1e                	jle    401b83 <notify_server+0x58>
  401b65:	be d8 34 40 00       	mov    $0x4034d8,%esi
  401b6a:	bf 01 00 00 00       	mov    $0x1,%edi
  401b6f:	b8 00 00 00 00       	mov    $0x0,%eax
  401b74:	e8 87 f2 ff ff       	callq  400e00 <__printf_chk@plt>
  401b79:	bf 01 00 00 00       	mov    $0x1,%edi
  401b7e:	e8 cd f2 ff ff       	callq  400e50 <exit@plt>
  401b83:	0f be 05 be 45 20 00 	movsbl 0x2045be(%rip),%eax        # 606148 <target_prefix>
  401b8a:	83 3d 17 39 20 00 00 	cmpl   $0x0,0x203917(%rip)        # 6054a8 <notify>
  401b91:	74 08                	je     401b9b <notify_server+0x70>
  401b93:	8b 15 87 39 20 00    	mov    0x203987(%rip),%edx        # 605520 <authkey>
  401b99:	eb 05                	jmp    401ba0 <notify_server+0x75>
  401b9b:	ba ff ff ff ff       	mov    $0xffffffff,%edx
  401ba0:	85 db                	test   %ebx,%ebx
  401ba2:	74 08                	je     401bac <notify_server+0x81>
  401ba4:	41 b9 b9 33 40 00    	mov    $0x4033b9,%r9d
  401baa:	eb 06                	jmp    401bb2 <notify_server+0x87>
  401bac:	41 b9 be 33 40 00    	mov    $0x4033be,%r9d
  401bb2:	68 40 55 60 00       	pushq  $0x605540
  401bb7:	56                   	push   %rsi
  401bb8:	50                   	push   %rax
  401bb9:	52                   	push   %rdx
  401bba:	44 8b 05 a7 35 20 00 	mov    0x2035a7(%rip),%r8d        # 605168 <target_id>
  401bc1:	b9 c3 33 40 00       	mov    $0x4033c3,%ecx
  401bc6:	ba 00 20 00 00       	mov    $0x2000,%edx
  401bcb:	be 01 00 00 00       	mov    $0x1,%esi
  401bd0:	48 8d 7c 24 20       	lea    0x20(%rsp),%rdi
  401bd5:	b8 00 00 00 00       	mov    $0x0,%eax
  401bda:	e8 a1 f2 ff ff       	callq  400e80 <__sprintf_chk@plt>
  401bdf:	48 83 c4 20          	add    $0x20,%rsp
  401be3:	83 3d be 38 20 00 00 	cmpl   $0x0,0x2038be(%rip)        # 6054a8 <notify>
  401bea:	0f 84 81 00 00 00    	je     401c71 <notify_server+0x146>
  401bf0:	85 db                	test   %ebx,%ebx
  401bf2:	74 6e                	je     401c62 <notify_server+0x137>
  401bf4:	4c 8d 8c 24 00 20 00 	lea    0x2000(%rsp),%r9
  401bfb:	00 
  401bfc:	41 b8 00 00 00 00    	mov    $0x0,%r8d
  401c02:	48 89 e1             	mov    %rsp,%rcx
  401c05:	48 8b 15 64 35 20 00 	mov    0x203564(%rip),%rdx        # 605170 <lab>
  401c0c:	48 8b 35 65 35 20 00 	mov    0x203565(%rip),%rsi        # 605178 <course>
  401c13:	48 8b 3d 46 35 20 00 	mov    0x203546(%rip),%rdi        # 605160 <user_id>
  401c1a:	e8 09 11 00 00       	callq  402d28 <driver_post>
  401c1f:	85 c0                	test   %eax,%eax
  401c21:	79 26                	jns    401c49 <notify_server+0x11e>
  401c23:	48 8d 94 24 00 20 00 	lea    0x2000(%rsp),%rdx
  401c2a:	00 
  401c2b:	be df 33 40 00       	mov    $0x4033df,%esi
  401c30:	bf 01 00 00 00       	mov    $0x1,%edi
  401c35:	b8 00 00 00 00       	mov    $0x0,%eax
  401c3a:	e8 c1 f1 ff ff       	callq  400e00 <__printf_chk@plt>
  401c3f:	bf 01 00 00 00       	mov    $0x1,%edi
  401c44:	e8 07 f2 ff ff       	callq  400e50 <exit@plt>
  401c49:	bf 08 35 40 00       	mov    $0x403508,%edi
  401c4e:	e8 7d f0 ff ff       	callq  400cd0 <puts@plt>
  401c53:	bf eb 33 40 00       	mov    $0x4033eb,%edi
  401c58:	e8 73 f0 ff ff       	callq  400cd0 <puts@plt>
  401c5d:	e9 9b 00 00 00       	jmpq   401cfd <notify_server+0x1d2>
  401c62:	bf f5 33 40 00       	mov    $0x4033f5,%edi
  401c67:	e8 64 f0 ff ff       	callq  400cd0 <puts@plt>
  401c6c:	e9 8c 00 00 00       	jmpq   401cfd <notify_server+0x1d2>
  401c71:	85 db                	test   %ebx,%ebx
  401c73:	74 07                	je     401c7c <notify_server+0x151>
  401c75:	ba b9 33 40 00       	mov    $0x4033b9,%edx
  401c7a:	eb 05                	jmp    401c81 <notify_server+0x156>
  401c7c:	ba be 33 40 00       	mov    $0x4033be,%edx
  401c81:	be 40 35 40 00       	mov    $0x403540,%esi
  401c86:	bf 01 00 00 00       	mov    $0x1,%edi
  401c8b:	b8 00 00 00 00       	mov    $0x0,%eax
  401c90:	e8 6b f1 ff ff       	callq  400e00 <__printf_chk@plt>
  401c95:	48 8b 15 c4 34 20 00 	mov    0x2034c4(%rip),%rdx        # 605160 <user_id>
  401c9c:	be fc 33 40 00       	mov    $0x4033fc,%esi
  401ca1:	bf 01 00 00 00       	mov    $0x1,%edi
  401ca6:	b8 00 00 00 00       	mov    $0x0,%eax
  401cab:	e8 50 f1 ff ff       	callq  400e00 <__printf_chk@plt>
  401cb0:	48 8b 15 c1 34 20 00 	mov    0x2034c1(%rip),%rdx        # 605178 <course>
  401cb7:	be 09 34 40 00       	mov    $0x403409,%esi
  401cbc:	bf 01 00 00 00       	mov    $0x1,%edi
  401cc1:	b8 00 00 00 00       	mov    $0x0,%eax
  401cc6:	e8 35 f1 ff ff       	callq  400e00 <__printf_chk@plt>
  401ccb:	48 8b 15 9e 34 20 00 	mov    0x20349e(%rip),%rdx        # 605170 <lab>
  401cd2:	be 15 34 40 00       	mov    $0x403415,%esi
  401cd7:	bf 01 00 00 00       	mov    $0x1,%edi
  401cdc:	b8 00 00 00 00       	mov    $0x0,%eax
  401ce1:	e8 1a f1 ff ff       	callq  400e00 <__printf_chk@plt>
  401ce6:	48 89 e2             	mov    %rsp,%rdx
  401ce9:	be 1e 34 40 00       	mov    $0x40341e,%esi
  401cee:	bf 01 00 00 00       	mov    $0x1,%edi
  401cf3:	b8 00 00 00 00       	mov    $0x0,%eax
  401cf8:	e8 03 f1 ff ff       	callq  400e00 <__printf_chk@plt>
  401cfd:	48 8b 84 24 08 40 00 	mov    0x4008(%rsp),%rax
  401d04:	00 
  401d05:	64 48 33 04 25 28 00 	xor    %fs:0x28,%rax
  401d0c:	00 00 
  401d0e:	74 05                	je     401d15 <notify_server+0x1ea>
  401d10:	e8 db ef ff ff       	callq  400cf0 <__stack_chk_fail@plt>
  401d15:	48 81 c4 10 40 00 00 	add    $0x4010,%rsp
  401d1c:	5b                   	pop    %rbx
  401d1d:	c3                   	retq   

0000000000401d1e <validate>:
  401d1e:	4c 8d 54 24 08       	lea    0x8(%rsp),%r10
  401d23:	48 83 e4 f0          	and    $0xfffffffffffffff0,%rsp
  401d27:	41 ff 72 f8          	pushq  -0x8(%r10)
  401d2b:	55                   	push   %rbp
  401d2c:	48 89 e5             	mov    %rsp,%rbp
  401d2f:	41 52                	push   %r10
  401d31:	53                   	push   %rbx
  401d32:	89 fb                	mov    %edi,%ebx
  401d34:	83 3d ed 37 20 00 00 	cmpl   $0x0,0x2037ed(%rip)        # 605528 <is_checker>
  401d3b:	74 6b                	je     401da8 <validate+0x8a>
  401d3d:	39 3d d9 37 20 00    	cmp    %edi,0x2037d9(%rip)        # 60551c <vlevel>
  401d43:	74 14                	je     401d59 <validate+0x3b>
  401d45:	bf 2a 34 40 00       	mov    $0x40342a,%edi
  401d4a:	e8 81 ef ff ff       	callq  400cd0 <puts@plt>
  401d4f:	b8 00 00 00 00       	mov    $0x0,%eax
  401d54:	e8 4b fd ff ff       	callq  401aa4 <check_fail>
  401d59:	8b 15 b9 37 20 00    	mov    0x2037b9(%rip),%edx        # 605518 <check_level>
  401d5f:	39 d7                	cmp    %edx,%edi
  401d61:	74 20                	je     401d83 <validate+0x65>
  401d63:	89 f9                	mov    %edi,%ecx
  401d65:	be 68 35 40 00       	mov    $0x403568,%esi
  401d6a:	bf 01 00 00 00       	mov    $0x1,%edi
  401d6f:	b8 00 00 00 00       	mov    $0x0,%eax
  401d74:	e8 87 f0 ff ff       	callq  400e00 <__printf_chk@plt>
  401d79:	b8 00 00 00 00       	mov    $0x0,%eax
  401d7e:	e8 21 fd ff ff       	callq  401aa4 <check_fail>
  401d83:	0f be 15 be 43 20 00 	movsbl 0x2043be(%rip),%edx        # 606148 <target_prefix>
  401d8a:	41 b8 40 55 60 00    	mov    $0x605540,%r8d
  401d90:	89 f9                	mov    %edi,%ecx
  401d92:	be 48 34 40 00       	mov    $0x403448,%esi
  401d97:	bf 01 00 00 00       	mov    $0x1,%edi
  401d9c:	b8 00 00 00 00       	mov    $0x0,%eax
  401da1:	e8 5a f0 ff ff       	callq  400e00 <__printf_chk@plt>
  401da6:	eb 49                	jmp    401df1 <validate+0xd3>
  401da8:	3b 3d 6e 37 20 00    	cmp    0x20376e(%rip),%edi        # 60551c <vlevel>
  401dae:	74 18                	je     401dc8 <validate+0xaa>
  401db0:	bf 2a 34 40 00       	mov    $0x40342a,%edi
  401db5:	e8 16 ef ff ff       	callq  400cd0 <puts@plt>
  401dba:	89 de                	mov    %ebx,%esi
  401dbc:	bf 00 00 00 00       	mov    $0x0,%edi
  401dc1:	e8 65 fd ff ff       	callq  401b2b <notify_server>
  401dc6:	eb 29                	jmp    401df1 <validate+0xd3>
  401dc8:	0f be 0d 79 43 20 00 	movsbl 0x204379(%rip),%ecx        # 606148 <target_prefix>
  401dcf:	89 fa                	mov    %edi,%edx
  401dd1:	be 90 35 40 00       	mov    $0x403590,%esi
  401dd6:	bf 01 00 00 00       	mov    $0x1,%edi
  401ddb:	b8 00 00 00 00       	mov    $0x0,%eax
  401de0:	e8 1b f0 ff ff       	callq  400e00 <__printf_chk@plt>
  401de5:	89 de                	mov    %ebx,%esi
  401de7:	bf 01 00 00 00       	mov    $0x1,%edi
  401dec:	e8 3a fd ff ff       	callq  401b2b <notify_server>
  401df1:	5b                   	pop    %rbx
  401df2:	41 5a                	pop    %r10
  401df4:	5d                   	pop    %rbp
  401df5:	49 8d 62 f8          	lea    -0x8(%r10),%rsp
  401df9:	c3                   	retq   

0000000000401dfa <fail>:
  401dfa:	48 83 ec 08          	sub    $0x8,%rsp
  401dfe:	83 3d 23 37 20 00 00 	cmpl   $0x0,0x203723(%rip)        # 605528 <is_checker>
  401e05:	74 0a                	je     401e11 <fail+0x17>
  401e07:	b8 00 00 00 00       	mov    $0x0,%eax
  401e0c:	e8 93 fc ff ff       	callq  401aa4 <check_fail>
  401e11:	89 fe                	mov    %edi,%esi
  401e13:	bf 00 00 00 00       	mov    $0x0,%edi
  401e18:	e8 0e fd ff ff       	callq  401b2b <notify_server>
  401e1d:	48 83 c4 08          	add    $0x8,%rsp
  401e21:	c3                   	retq   

0000000000401e22 <bushandler>:
  401e22:	48 83 ec 08          	sub    $0x8,%rsp
  401e26:	83 3d fb 36 20 00 00 	cmpl   $0x0,0x2036fb(%rip)        # 605528 <is_checker>
  401e2d:	74 14                	je     401e43 <bushandler+0x21>
  401e2f:	bf 5d 34 40 00       	mov    $0x40345d,%edi
  401e34:	e8 97 ee ff ff       	callq  400cd0 <puts@plt>
  401e39:	b8 00 00 00 00       	mov    $0x0,%eax
  401e3e:	e8 61 fc ff ff       	callq  401aa4 <check_fail>
  401e43:	bf c8 35 40 00       	mov    $0x4035c8,%edi
  401e48:	e8 83 ee ff ff       	callq  400cd0 <puts@plt>
  401e4d:	bf 67 34 40 00       	mov    $0x403467,%edi
  401e52:	e8 79 ee ff ff       	callq  400cd0 <puts@plt>
  401e57:	be 00 00 00 00       	mov    $0x0,%esi
  401e5c:	bf 00 00 00 00       	mov    $0x0,%edi
  401e61:	e8 c5 fc ff ff       	callq  401b2b <notify_server>
  401e66:	bf 01 00 00 00       	mov    $0x1,%edi
  401e6b:	e8 e0 ef ff ff       	callq  400e50 <exit@plt>

0000000000401e70 <seghandler>:
  401e70:	48 83 ec 08          	sub    $0x8,%rsp
  401e74:	83 3d ad 36 20 00 00 	cmpl   $0x0,0x2036ad(%rip)        # 605528 <is_checker>
  401e7b:	74 14                	je     401e91 <seghandler+0x21>
  401e7d:	bf 7d 34 40 00       	mov    $0x40347d,%edi
  401e82:	e8 49 ee ff ff       	callq  400cd0 <puts@plt>
  401e87:	b8 00 00 00 00       	mov    $0x0,%eax
  401e8c:	e8 13 fc ff ff       	callq  401aa4 <check_fail>
  401e91:	bf e8 35 40 00       	mov    $0x4035e8,%edi
  401e96:	e8 35 ee ff ff       	callq  400cd0 <puts@plt>
  401e9b:	bf 67 34 40 00       	mov    $0x403467,%edi
  401ea0:	e8 2b ee ff ff       	callq  400cd0 <puts@plt>
  401ea5:	be 00 00 00 00       	mov    $0x0,%esi
  401eaa:	bf 00 00 00 00       	mov    $0x0,%edi
  401eaf:	e8 77 fc ff ff       	callq  401b2b <notify_server>
  401eb4:	bf 01 00 00 00       	mov    $0x1,%edi
  401eb9:	e8 92 ef ff ff       	callq  400e50 <exit@plt>

0000000000401ebe <illegalhandler>:
  401ebe:	48 83 ec 08          	sub    $0x8,%rsp
  401ec2:	83 3d 5f 36 20 00 00 	cmpl   $0x0,0x20365f(%rip)        # 605528 <is_checker>
  401ec9:	74 14                	je     401edf <illegalhandler+0x21>
  401ecb:	bf 90 34 40 00       	mov    $0x403490,%edi
  401ed0:	e8 fb ed ff ff       	callq  400cd0 <puts@plt>
  401ed5:	b8 00 00 00 00       	mov    $0x0,%eax
  401eda:	e8 c5 fb ff ff       	callq  401aa4 <check_fail>
  401edf:	bf 10 36 40 00       	mov    $0x403610,%edi
  401ee4:	e8 e7 ed ff ff       	callq  400cd0 <puts@plt>
  401ee9:	bf 67 34 40 00       	mov    $0x403467,%edi
  401eee:	e8 dd ed ff ff       	callq  400cd0 <puts@plt>
  401ef3:	be 00 00 00 00       	mov    $0x0,%esi
  401ef8:	bf 00 00 00 00       	mov    $0x0,%edi
  401efd:	e8 29 fc ff ff       	callq  401b2b <notify_server>
  401f02:	bf 01 00 00 00       	mov    $0x1,%edi
  401f07:	e8 44 ef ff ff       	callq  400e50 <exit@plt>

0000000000401f0c <sigalrmhandler>:
  401f0c:	48 83 ec 08          	sub    $0x8,%rsp
  401f10:	83 3d 11 36 20 00 00 	cmpl   $0x0,0x203611(%rip)        # 605528 <is_checker>
  401f17:	74 14                	je     401f2d <sigalrmhandler+0x21>
  401f19:	bf a4 34 40 00       	mov    $0x4034a4,%edi
  401f1e:	e8 ad ed ff ff       	callq  400cd0 <puts@plt>
  401f23:	b8 00 00 00 00       	mov    $0x0,%eax
  401f28:	e8 77 fb ff ff       	callq  401aa4 <check_fail>
  401f2d:	ba 05 00 00 00       	mov    $0x5,%edx
  401f32:	be 40 36 40 00       	mov    $0x403640,%esi
  401f37:	bf 01 00 00 00       	mov    $0x1,%edi
  401f3c:	b8 00 00 00 00       	mov    $0x0,%eax
  401f41:	e8 ba ee ff ff       	callq  400e00 <__printf_chk@plt>
  401f46:	be 00 00 00 00       	mov    $0x0,%esi
  401f4b:	bf 00 00 00 00       	mov    $0x0,%edi
  401f50:	e8 d6 fb ff ff       	callq  401b2b <notify_server>
  401f55:	bf 01 00 00 00       	mov    $0x1,%edi
  401f5a:	e8 f1 ee ff ff       	callq  400e50 <exit@plt>

0000000000401f5f <launch>:
  401f5f:	55                   	push   %rbp
  401f60:	48 89 e5             	mov    %rsp,%rbp
  401f63:	48 83 ec 10          	sub    $0x10,%rsp
  401f67:	48 89 fa             	mov    %rdi,%rdx
  401f6a:	64 48 8b 04 25 28 00 	mov    %fs:0x28,%rax
  401f71:	00 00 
  401f73:	48 89 45 f8          	mov    %rax,-0x8(%rbp)
  401f77:	31 c0                	xor    %eax,%eax
  401f79:	48 8d 47 1e          	lea    0x1e(%rdi),%rax
  401f7d:	48 83 e0 f0          	and    $0xfffffffffffffff0,%rax
  401f81:	48 29 c4             	sub    %rax,%rsp
  401f84:	48 8d 7c 24 0f       	lea    0xf(%rsp),%rdi
  401f89:	48 83 e7 f0          	and    $0xfffffffffffffff0,%rdi
  401f8d:	be f4 00 00 00       	mov    $0xf4,%esi
  401f92:	e8 79 ed ff ff       	callq  400d10 <memset@plt>
  401f97:	48 8b 05 22 35 20 00 	mov    0x203522(%rip),%rax        # 6054c0 <stdin@@GLIBC_2.2.5>
  401f9e:	48 39 05 6b 35 20 00 	cmp    %rax,0x20356b(%rip)        # 605510 <infile>
  401fa5:	75 14                	jne    401fbb <launch+0x5c>
  401fa7:	be ac 34 40 00       	mov    $0x4034ac,%esi
  401fac:	bf 01 00 00 00       	mov    $0x1,%edi
  401fb1:	b8 00 00 00 00       	mov    $0x0,%eax
  401fb6:	e8 45 ee ff ff       	callq  400e00 <__printf_chk@plt>
  401fbb:	c7 05 57 35 20 00 00 	movl   $0x0,0x203557(%rip)        # 60551c <vlevel>
  401fc2:	00 00 00 
  401fc5:	b8 00 00 00 00       	mov    $0x0,%eax
  401fca:	e8 41 fa ff ff       	callq  401a10 <test>
  401fcf:	83 3d 52 35 20 00 00 	cmpl   $0x0,0x203552(%rip)        # 605528 <is_checker>
  401fd6:	74 14                	je     401fec <launch+0x8d>
  401fd8:	bf b9 34 40 00       	mov    $0x4034b9,%edi
  401fdd:	e8 ee ec ff ff       	callq  400cd0 <puts@plt>
  401fe2:	b8 00 00 00 00       	mov    $0x0,%eax
  401fe7:	e8 b8 fa ff ff       	callq  401aa4 <check_fail>
  401fec:	bf c4 34 40 00       	mov    $0x4034c4,%edi
  401ff1:	e8 da ec ff ff       	callq  400cd0 <puts@plt>
  401ff6:	48 8b 45 f8          	mov    -0x8(%rbp),%rax
  401ffa:	64 48 33 04 25 28 00 	xor    %fs:0x28,%rax
  402001:	00 00 
  402003:	74 05                	je     40200a <launch+0xab>
  402005:	e8 e6 ec ff ff       	callq  400cf0 <__stack_chk_fail@plt>
  40200a:	c9                   	leaveq 
  40200b:	c3                   	retq   

000000000040200c <stable_launch>:
  40200c:	53                   	push   %rbx
  40200d:	48 89 3d f4 34 20 00 	mov    %rdi,0x2034f4(%rip)        # 605508 <global_offset>
  402014:	41 b9 00 00 00 00    	mov    $0x0,%r9d
  40201a:	41 b8 00 00 00 00    	mov    $0x0,%r8d
  402020:	b9 32 01 00 00       	mov    $0x132,%ecx
  402025:	ba 07 00 00 00       	mov    $0x7,%edx
  40202a:	be 00 00 10 00       	mov    $0x100000,%esi
  40202f:	bf 00 60 58 55       	mov    $0x55586000,%edi
  402034:	e8 c7 ec ff ff       	callq  400d00 <mmap@plt>
  402039:	48 89 c3             	mov    %rax,%rbx
  40203c:	48 3d 00 60 58 55    	cmp    $0x55586000,%rax
  402042:	74 37                	je     40207b <stable_launch+0x6f>
  402044:	be 00 00 10 00       	mov    $0x100000,%esi
  402049:	48 89 c7             	mov    %rax,%rdi
  40204c:	e8 9f ed ff ff       	callq  400df0 <munmap@plt>
  402051:	b9 00 60 58 55       	mov    $0x55586000,%ecx
  402056:	ba 78 36 40 00       	mov    $0x403678,%edx
  40205b:	be 01 00 00 00       	mov    $0x1,%esi
  402060:	48 8b 3d 79 34 20 00 	mov    0x203479(%rip),%rdi        # 6054e0 <stderr@@GLIBC_2.2.5>
  402067:	b8 00 00 00 00       	mov    $0x0,%eax
  40206c:	e8 ff ed ff ff       	callq  400e70 <__fprintf_chk@plt>
  402071:	bf 01 00 00 00       	mov    $0x1,%edi
  402076:	e8 d5 ed ff ff       	callq  400e50 <exit@plt>
  40207b:	48 8d 90 f8 ff 0f 00 	lea    0xffff8(%rax),%rdx
  402082:	48 89 15 c7 40 20 00 	mov    %rdx,0x2040c7(%rip)        # 606150 <stack_top>
  402089:	48 89 e0             	mov    %rsp,%rax
  40208c:	48 89 d4             	mov    %rdx,%rsp
  40208f:	48 89 c2             	mov    %rax,%rdx
  402092:	48 89 15 67 34 20 00 	mov    %rdx,0x203467(%rip)        # 605500 <global_save_stack>
  402099:	48 8b 3d 68 34 20 00 	mov    0x203468(%rip),%rdi        # 605508 <global_offset>
  4020a0:	e8 ba fe ff ff       	callq  401f5f <launch>
  4020a5:	48 8b 05 54 34 20 00 	mov    0x203454(%rip),%rax        # 605500 <global_save_stack>
  4020ac:	48 89 c4             	mov    %rax,%rsp
  4020af:	be 00 00 10 00       	mov    $0x100000,%esi
  4020b4:	48 89 df             	mov    %rbx,%rdi
  4020b7:	e8 34 ed ff ff       	callq  400df0 <munmap@plt>
  4020bc:	5b                   	pop    %rbx
  4020bd:	c3                   	retq   

00000000004020be <rio_readinitb>:
  4020be:	89 37                	mov    %esi,(%rdi)
  4020c0:	c7 47 04 00 00 00 00 	movl   $0x0,0x4(%rdi)
  4020c7:	48 8d 47 10          	lea    0x10(%rdi),%rax
  4020cb:	48 89 47 08          	mov    %rax,0x8(%rdi)
  4020cf:	c3                   	retq   

00000000004020d0 <sigalrm_handler>:
  4020d0:	48 83 ec 08          	sub    $0x8,%rsp
  4020d4:	b9 00 00 00 00       	mov    $0x0,%ecx
  4020d9:	ba b0 36 40 00       	mov    $0x4036b0,%edx
  4020de:	be 01 00 00 00       	mov    $0x1,%esi
  4020e3:	48 8b 3d f6 33 20 00 	mov    0x2033f6(%rip),%rdi        # 6054e0 <stderr@@GLIBC_2.2.5>
  4020ea:	b8 00 00 00 00       	mov    $0x0,%eax
  4020ef:	e8 7c ed ff ff       	callq  400e70 <__fprintf_chk@plt>
  4020f4:	bf 01 00 00 00       	mov    $0x1,%edi
  4020f9:	e8 52 ed ff ff       	callq  400e50 <exit@plt>

00000000004020fe <rio_writen>:
  4020fe:	41 55                	push   %r13
  402100:	41 54                	push   %r12
  402102:	55                   	push   %rbp
  402103:	53                   	push   %rbx
  402104:	48 83 ec 08          	sub    $0x8,%rsp
  402108:	41 89 fc             	mov    %edi,%r12d
  40210b:	48 89 f5             	mov    %rsi,%rbp
  40210e:	49 89 d5             	mov    %rdx,%r13
  402111:	48 89 d3             	mov    %rdx,%rbx
  402114:	eb 28                	jmp    40213e <rio_writen+0x40>
  402116:	48 89 da             	mov    %rbx,%rdx
  402119:	48 89 ee             	mov    %rbp,%rsi
  40211c:	44 89 e7             	mov    %r12d,%edi
  40211f:	e8 bc eb ff ff       	callq  400ce0 <write@plt>
  402124:	48 85 c0             	test   %rax,%rax
  402127:	7f 0f                	jg     402138 <rio_writen+0x3a>
  402129:	e8 62 eb ff ff       	callq  400c90 <__errno_location@plt>
  40212e:	83 38 04             	cmpl   $0x4,(%rax)
  402131:	75 15                	jne    402148 <rio_writen+0x4a>
  402133:	b8 00 00 00 00       	mov    $0x0,%eax
  402138:	48 29 c3             	sub    %rax,%rbx
  40213b:	48 01 c5             	add    %rax,%rbp
  40213e:	48 85 db             	test   %rbx,%rbx
  402141:	75 d3                	jne    402116 <rio_writen+0x18>
  402143:	4c 89 e8             	mov    %r13,%rax
  402146:	eb 07                	jmp    40214f <rio_writen+0x51>
  402148:	48 c7 c0 ff ff ff ff 	mov    $0xffffffffffffffff,%rax
  40214f:	48 83 c4 08          	add    $0x8,%rsp
  402153:	5b                   	pop    %rbx
  402154:	5d                   	pop    %rbp
  402155:	41 5c                	pop    %r12
  402157:	41 5d                	pop    %r13
  402159:	c3                   	retq   

000000000040215a <rio_read>:
  40215a:	41 55                	push   %r13
  40215c:	41 54                	push   %r12
  40215e:	55                   	push   %rbp
  40215f:	53                   	push   %rbx
  402160:	48 83 ec 08          	sub    $0x8,%rsp
  402164:	48 89 fb             	mov    %rdi,%rbx
  402167:	49 89 f5             	mov    %rsi,%r13
  40216a:	49 89 d4             	mov    %rdx,%r12
  40216d:	eb 2e                	jmp    40219d <rio_read+0x43>
  40216f:	48 8d 6b 10          	lea    0x10(%rbx),%rbp
  402173:	8b 3b                	mov    (%rbx),%edi
  402175:	ba 00 20 00 00       	mov    $0x2000,%edx
  40217a:	48 89 ee             	mov    %rbp,%rsi
  40217d:	e8 be eb ff ff       	callq  400d40 <read@plt>
  402182:	89 43 04             	mov    %eax,0x4(%rbx)
  402185:	85 c0                	test   %eax,%eax
  402187:	79 0c                	jns    402195 <rio_read+0x3b>
  402189:	e8 02 eb ff ff       	callq  400c90 <__errno_location@plt>
  40218e:	83 38 04             	cmpl   $0x4,(%rax)
  402191:	74 0a                	je     40219d <rio_read+0x43>
  402193:	eb 37                	jmp    4021cc <rio_read+0x72>
  402195:	85 c0                	test   %eax,%eax
  402197:	74 3c                	je     4021d5 <rio_read+0x7b>
  402199:	48 89 6b 08          	mov    %rbp,0x8(%rbx)
  40219d:	8b 6b 04             	mov    0x4(%rbx),%ebp
  4021a0:	85 ed                	test   %ebp,%ebp
  4021a2:	7e cb                	jle    40216f <rio_read+0x15>
  4021a4:	89 e8                	mov    %ebp,%eax
  4021a6:	49 39 c4             	cmp    %rax,%r12
  4021a9:	77 03                	ja     4021ae <rio_read+0x54>
  4021ab:	44 89 e5             	mov    %r12d,%ebp
  4021ae:	4c 63 e5             	movslq %ebp,%r12
  4021b1:	48 8b 73 08          	mov    0x8(%rbx),%rsi
  4021b5:	4c 89 e2             	mov    %r12,%rdx
  4021b8:	4c 89 ef             	mov    %r13,%rdi
  4021bb:	e8 e0 eb ff ff       	callq  400da0 <memcpy@plt>
  4021c0:	4c 01 63 08          	add    %r12,0x8(%rbx)
  4021c4:	29 6b 04             	sub    %ebp,0x4(%rbx)
  4021c7:	4c 89 e0             	mov    %r12,%rax
  4021ca:	eb 0e                	jmp    4021da <rio_read+0x80>
  4021cc:	48 c7 c0 ff ff ff ff 	mov    $0xffffffffffffffff,%rax
  4021d3:	eb 05                	jmp    4021da <rio_read+0x80>
  4021d5:	b8 00 00 00 00       	mov    $0x0,%eax
  4021da:	48 83 c4 08          	add    $0x8,%rsp
  4021de:	5b                   	pop    %rbx
  4021df:	5d                   	pop    %rbp
  4021e0:	41 5c                	pop    %r12
  4021e2:	41 5d                	pop    %r13
  4021e4:	c3                   	retq   

00000000004021e5 <rio_readlineb>:
  4021e5:	41 55                	push   %r13
  4021e7:	41 54                	push   %r12
  4021e9:	55                   	push   %rbp
  4021ea:	53                   	push   %rbx
  4021eb:	48 83 ec 18          	sub    $0x18,%rsp
  4021ef:	49 89 fd             	mov    %rdi,%r13
  4021f2:	48 89 f5             	mov    %rsi,%rbp
  4021f5:	49 89 d4             	mov    %rdx,%r12
  4021f8:	64 48 8b 04 25 28 00 	mov    %fs:0x28,%rax
  4021ff:	00 00 
  402201:	48 89 44 24 08       	mov    %rax,0x8(%rsp)
  402206:	31 c0                	xor    %eax,%eax
  402208:	bb 01 00 00 00       	mov    $0x1,%ebx
  40220d:	eb 3f                	jmp    40224e <rio_readlineb+0x69>
  40220f:	ba 01 00 00 00       	mov    $0x1,%edx
  402214:	48 8d 74 24 07       	lea    0x7(%rsp),%rsi
  402219:	4c 89 ef             	mov    %r13,%rdi
  40221c:	e8 39 ff ff ff       	callq  40215a <rio_read>
  402221:	83 f8 01             	cmp    $0x1,%eax
  402224:	75 15                	jne    40223b <rio_readlineb+0x56>
  402226:	48 8d 45 01          	lea    0x1(%rbp),%rax
  40222a:	0f b6 54 24 07       	movzbl 0x7(%rsp),%edx
  40222f:	88 55 00             	mov    %dl,0x0(%rbp)
  402232:	80 7c 24 07 0a       	cmpb   $0xa,0x7(%rsp)
  402237:	75 0e                	jne    402247 <rio_readlineb+0x62>
  402239:	eb 1a                	jmp    402255 <rio_readlineb+0x70>
  40223b:	85 c0                	test   %eax,%eax
  40223d:	75 22                	jne    402261 <rio_readlineb+0x7c>
  40223f:	48 83 fb 01          	cmp    $0x1,%rbx
  402243:	75 13                	jne    402258 <rio_readlineb+0x73>
  402245:	eb 23                	jmp    40226a <rio_readlineb+0x85>
  402247:	48 83 c3 01          	add    $0x1,%rbx
  40224b:	48 89 c5             	mov    %rax,%rbp
  40224e:	4c 39 e3             	cmp    %r12,%rbx
  402251:	72 bc                	jb     40220f <rio_readlineb+0x2a>
  402253:	eb 03                	jmp    402258 <rio_readlineb+0x73>
  402255:	48 89 c5             	mov    %rax,%rbp
  402258:	c6 45 00 00          	movb   $0x0,0x0(%rbp)
  40225c:	48 89 d8             	mov    %rbx,%rax
  40225f:	eb 0e                	jmp    40226f <rio_readlineb+0x8a>
  402261:	48 c7 c0 ff ff ff ff 	mov    $0xffffffffffffffff,%rax
  402268:	eb 05                	jmp    40226f <rio_readlineb+0x8a>
  40226a:	b8 00 00 00 00       	mov    $0x0,%eax
  40226f:	48 8b 4c 24 08       	mov    0x8(%rsp),%rcx
  402274:	64 48 33 0c 25 28 00 	xor    %fs:0x28,%rcx
  40227b:	00 00 
  40227d:	74 05                	je     402284 <rio_readlineb+0x9f>
  40227f:	e8 6c ea ff ff       	callq  400cf0 <__stack_chk_fail@plt>
  402284:	48 83 c4 18          	add    $0x18,%rsp
  402288:	5b                   	pop    %rbx
  402289:	5d                   	pop    %rbp
  40228a:	41 5c                	pop    %r12
  40228c:	41 5d                	pop    %r13
  40228e:	c3                   	retq   

000000000040228f <urlencode>:
  40228f:	41 54                	push   %r12
  402291:	55                   	push   %rbp
  402292:	53                   	push   %rbx
  402293:	48 83 ec 10          	sub    $0x10,%rsp
  402297:	48 89 fb             	mov    %rdi,%rbx
  40229a:	48 89 f5             	mov    %rsi,%rbp
  40229d:	64 48 8b 04 25 28 00 	mov    %fs:0x28,%rax
  4022a4:	00 00 
  4022a6:	48 89 44 24 08       	mov    %rax,0x8(%rsp)
  4022ab:	31 c0                	xor    %eax,%eax
  4022ad:	48 c7 c1 ff ff ff ff 	mov    $0xffffffffffffffff,%rcx
  4022b4:	f2 ae                	repnz scas %es:(%rdi),%al
  4022b6:	48 f7 d1             	not    %rcx
  4022b9:	8d 41 ff             	lea    -0x1(%rcx),%eax
  4022bc:	e9 aa 00 00 00       	jmpq   40236b <urlencode+0xdc>
  4022c1:	44 0f b6 03          	movzbl (%rbx),%r8d
  4022c5:	41 80 f8 2a          	cmp    $0x2a,%r8b
  4022c9:	0f 94 c2             	sete   %dl
  4022cc:	41 80 f8 2d          	cmp    $0x2d,%r8b
  4022d0:	0f 94 c0             	sete   %al
  4022d3:	08 c2                	or     %al,%dl
  4022d5:	75 24                	jne    4022fb <urlencode+0x6c>
  4022d7:	41 80 f8 2e          	cmp    $0x2e,%r8b
  4022db:	74 1e                	je     4022fb <urlencode+0x6c>
  4022dd:	41 80 f8 5f          	cmp    $0x5f,%r8b
  4022e1:	74 18                	je     4022fb <urlencode+0x6c>
  4022e3:	41 8d 40 d0          	lea    -0x30(%r8),%eax
  4022e7:	3c 09                	cmp    $0x9,%al
  4022e9:	76 10                	jbe    4022fb <urlencode+0x6c>
  4022eb:	41 8d 40 bf          	lea    -0x41(%r8),%eax
  4022ef:	3c 19                	cmp    $0x19,%al
  4022f1:	76 08                	jbe    4022fb <urlencode+0x6c>
  4022f3:	41 8d 40 9f          	lea    -0x61(%r8),%eax
  4022f7:	3c 19                	cmp    $0x19,%al
  4022f9:	77 0a                	ja     402305 <urlencode+0x76>
  4022fb:	44 88 45 00          	mov    %r8b,0x0(%rbp)
  4022ff:	48 8d 6d 01          	lea    0x1(%rbp),%rbp
  402303:	eb 5f                	jmp    402364 <urlencode+0xd5>
  402305:	41 80 f8 20          	cmp    $0x20,%r8b
  402309:	75 0a                	jne    402315 <urlencode+0x86>
  40230b:	c6 45 00 2b          	movb   $0x2b,0x0(%rbp)
  40230f:	48 8d 6d 01          	lea    0x1(%rbp),%rbp
  402313:	eb 4f                	jmp    402364 <urlencode+0xd5>
  402315:	41 8d 40 e0          	lea    -0x20(%r8),%eax
  402319:	3c 5f                	cmp    $0x5f,%al
  40231b:	0f 96 c2             	setbe  %dl
  40231e:	41 80 f8 09          	cmp    $0x9,%r8b
  402322:	0f 94 c0             	sete   %al
  402325:	08 c2                	or     %al,%dl
  402327:	74 50                	je     402379 <urlencode+0xea>
  402329:	45 0f b6 c0          	movzbl %r8b,%r8d
  40232d:	b9 48 37 40 00       	mov    $0x403748,%ecx
  402332:	ba 08 00 00 00       	mov    $0x8,%edx
  402337:	be 01 00 00 00       	mov    $0x1,%esi
  40233c:	48 89 e7             	mov    %rsp,%rdi
  40233f:	b8 00 00 00 00       	mov    $0x0,%eax
  402344:	e8 37 eb ff ff       	callq  400e80 <__sprintf_chk@plt>
  402349:	0f b6 04 24          	movzbl (%rsp),%eax
  40234d:	88 45 00             	mov    %al,0x0(%rbp)
  402350:	0f b6 44 24 01       	movzbl 0x1(%rsp),%eax
  402355:	88 45 01             	mov    %al,0x1(%rbp)
  402358:	0f b6 44 24 02       	movzbl 0x2(%rsp),%eax
  40235d:	88 45 02             	mov    %al,0x2(%rbp)
  402360:	48 8d 6d 03          	lea    0x3(%rbp),%rbp
  402364:	48 83 c3 01          	add    $0x1,%rbx
  402368:	44 89 e0             	mov    %r12d,%eax
  40236b:	44 8d 60 ff          	lea    -0x1(%rax),%r12d
  40236f:	85 c0                	test   %eax,%eax
  402371:	0f 85 4a ff ff ff    	jne    4022c1 <urlencode+0x32>
  402377:	eb 05                	jmp    40237e <urlencode+0xef>
  402379:	b8 ff ff ff ff       	mov    $0xffffffff,%eax
  40237e:	48 8b 74 24 08       	mov    0x8(%rsp),%rsi
  402383:	64 48 33 34 25 28 00 	xor    %fs:0x28,%rsi
  40238a:	00 00 
  40238c:	74 05                	je     402393 <urlencode+0x104>
  40238e:	e8 5d e9 ff ff       	callq  400cf0 <__stack_chk_fail@plt>
  402393:	48 83 c4 10          	add    $0x10,%rsp
  402397:	5b                   	pop    %rbx
  402398:	5d                   	pop    %rbp
  402399:	41 5c                	pop    %r12
  40239b:	c3                   	retq   

000000000040239c <submitr>:
  40239c:	41 57                	push   %r15
  40239e:	41 56                	push   %r14
  4023a0:	41 55                	push   %r13
  4023a2:	41 54                	push   %r12
  4023a4:	55                   	push   %rbp
  4023a5:	53                   	push   %rbx
  4023a6:	48 81 ec 58 a0 00 00 	sub    $0xa058,%rsp
  4023ad:	49 89 fc             	mov    %rdi,%r12
  4023b0:	89 74 24 04          	mov    %esi,0x4(%rsp)
  4023b4:	49 89 d7             	mov    %rdx,%r15
  4023b7:	49 89 ce             	mov    %rcx,%r14
  4023ba:	4c 89 44 24 08       	mov    %r8,0x8(%rsp)
  4023bf:	4d 89 cd             	mov    %r9,%r13
  4023c2:	48 8b 9c 24 90 a0 00 	mov    0xa090(%rsp),%rbx
  4023c9:	00 
  4023ca:	64 48 8b 04 25 28 00 	mov    %fs:0x28,%rax
  4023d1:	00 00 
  4023d3:	48 89 84 24 48 a0 00 	mov    %rax,0xa048(%rsp)
  4023da:	00 
  4023db:	31 c0                	xor    %eax,%eax
  4023dd:	c7 44 24 1c 00 00 00 	movl   $0x0,0x1c(%rsp)
  4023e4:	00 
  4023e5:	ba 00 00 00 00       	mov    $0x0,%edx
  4023ea:	be 01 00 00 00       	mov    $0x1,%esi
  4023ef:	bf 02 00 00 00       	mov    $0x2,%edi
  4023f4:	e8 97 ea ff ff       	callq  400e90 <socket@plt>
  4023f9:	85 c0                	test   %eax,%eax
  4023fb:	79 4e                	jns    40244b <submitr+0xaf>
  4023fd:	48 b8 45 72 72 6f 72 	movabs $0x43203a726f727245,%rax
  402404:	3a 20 43 
  402407:	48 89 03             	mov    %rax,(%rbx)
  40240a:	48 b8 6c 69 65 6e 74 	movabs $0x6e7520746e65696c,%rax
  402411:	20 75 6e 
  402414:	48 89 43 08          	mov    %rax,0x8(%rbx)
  402418:	48 b8 61 62 6c 65 20 	movabs $0x206f7420656c6261,%rax
  40241f:	74 6f 20 
  402422:	48 89 43 10          	mov    %rax,0x10(%rbx)
  402426:	48 b8 63 72 65 61 74 	movabs $0x7320657461657263,%rax
  40242d:	65 20 73 
  402430:	48 89 43 18          	mov    %rax,0x18(%rbx)
  402434:	c7 43 20 6f 63 6b 65 	movl   $0x656b636f,0x20(%rbx)
  40243b:	66 c7 43 24 74 00    	movw   $0x74,0x24(%rbx)
  402441:	b8 ff ff ff ff       	mov    $0xffffffff,%eax
  402446:	e9 97 06 00 00       	jmpq   402ae2 <submitr+0x746>
  40244b:	89 c5                	mov    %eax,%ebp
  40244d:	4c 89 e7             	mov    %r12,%rdi
  402450:	e8 1b e9 ff ff       	callq  400d70 <gethostbyname@plt>
  402455:	48 85 c0             	test   %rax,%rax
  402458:	75 67                	jne    4024c1 <submitr+0x125>
  40245a:	48 b8 45 72 72 6f 72 	movabs $0x44203a726f727245,%rax
  402461:	3a 20 44 
  402464:	48 89 03             	mov    %rax,(%rbx)
  402467:	48 b8 4e 53 20 69 73 	movabs $0x6e7520736920534e,%rax
  40246e:	20 75 6e 
  402471:	48 89 43 08          	mov    %rax,0x8(%rbx)
  402475:	48 b8 61 62 6c 65 20 	movabs $0x206f7420656c6261,%rax
  40247c:	74 6f 20 
  40247f:	48 89 43 10          	mov    %rax,0x10(%rbx)
  402483:	48 b8 72 65 73 6f 6c 	movabs $0x2065766c6f736572,%rax
  40248a:	76 65 20 
  40248d:	48 89 43 18          	mov    %rax,0x18(%rbx)
  402491:	48 b8 73 65 72 76 65 	movabs $0x6120726576726573,%rax
  402498:	72 20 61 
  40249b:	48 89 43 20          	mov    %rax,0x20(%rbx)
  40249f:	c7 43 28 64 64 72 65 	movl   $0x65726464,0x28(%rbx)
  4024a6:	66 c7 43 2c 73 73    	movw   $0x7373,0x2c(%rbx)
  4024ac:	c6 43 2e 00          	movb   $0x0,0x2e(%rbx)
  4024b0:	89 ef                	mov    %ebp,%edi
  4024b2:	e8 79 e8 ff ff       	callq  400d30 <close@plt>
  4024b7:	b8 ff ff ff ff       	mov    $0xffffffff,%eax
  4024bc:	e9 21 06 00 00       	jmpq   402ae2 <submitr+0x746>
  4024c1:	48 c7 44 24 20 00 00 	movq   $0x0,0x20(%rsp)
  4024c8:	00 00 
  4024ca:	48 c7 44 24 28 00 00 	movq   $0x0,0x28(%rsp)
  4024d1:	00 00 
  4024d3:	66 c7 44 24 20 02 00 	movw   $0x2,0x20(%rsp)
  4024da:	48 63 50 14          	movslq 0x14(%rax),%rdx
  4024de:	48 8b 40 18          	mov    0x18(%rax),%rax
  4024e2:	48 8b 30             	mov    (%rax),%rsi
  4024e5:	48 8d 7c 24 24       	lea    0x24(%rsp),%rdi
  4024ea:	b9 0c 00 00 00       	mov    $0xc,%ecx
  4024ef:	e8 8c e8 ff ff       	callq  400d80 <__memmove_chk@plt>
  4024f4:	0f b7 44 24 04       	movzwl 0x4(%rsp),%eax
  4024f9:	66 c1 c8 08          	ror    $0x8,%ax
  4024fd:	66 89 44 24 22       	mov    %ax,0x22(%rsp)
  402502:	ba 10 00 00 00       	mov    $0x10,%edx
  402507:	48 8d 74 24 20       	lea    0x20(%rsp),%rsi
  40250c:	89 ef                	mov    %ebp,%edi
  40250e:	e8 4d e9 ff ff       	callq  400e60 <connect@plt>
  402513:	85 c0                	test   %eax,%eax
  402515:	79 59                	jns    402570 <submitr+0x1d4>
  402517:	48 b8 45 72 72 6f 72 	movabs $0x55203a726f727245,%rax
  40251e:	3a 20 55 
  402521:	48 89 03             	mov    %rax,(%rbx)
  402524:	48 b8 6e 61 62 6c 65 	movabs $0x6f7420656c62616e,%rax
  40252b:	20 74 6f 
  40252e:	48 89 43 08          	mov    %rax,0x8(%rbx)
  402532:	48 b8 20 63 6f 6e 6e 	movabs $0x7463656e6e6f6320,%rax
  402539:	65 63 74 
  40253c:	48 89 43 10          	mov    %rax,0x10(%rbx)
  402540:	48 b8 20 74 6f 20 74 	movabs $0x20656874206f7420,%rax
  402547:	68 65 20 
  40254a:	48 89 43 18          	mov    %rax,0x18(%rbx)
  40254e:	c7 43 20 73 65 72 76 	movl   $0x76726573,0x20(%rbx)
  402555:	66 c7 43 24 65 72    	movw   $0x7265,0x24(%rbx)
  40255b:	c6 43 26 00          	movb   $0x0,0x26(%rbx)
  40255f:	89 ef                	mov    %ebp,%edi
  402561:	e8 ca e7 ff ff       	callq  400d30 <close@plt>
  402566:	b8 ff ff ff ff       	mov    $0xffffffff,%eax
  40256b:	e9 72 05 00 00       	jmpq   402ae2 <submitr+0x746>
  402570:	48 c7 c6 ff ff ff ff 	mov    $0xffffffffffffffff,%rsi
  402577:	b8 00 00 00 00       	mov    $0x0,%eax
  40257c:	48 89 f1             	mov    %rsi,%rcx
  40257f:	4c 89 ef             	mov    %r13,%rdi
  402582:	f2 ae                	repnz scas %es:(%rdi),%al
  402584:	48 f7 d1             	not    %rcx
  402587:	48 89 ca             	mov    %rcx,%rdx
  40258a:	48 89 f1             	mov    %rsi,%rcx
  40258d:	4c 89 ff             	mov    %r15,%rdi
  402590:	f2 ae                	repnz scas %es:(%rdi),%al
  402592:	48 f7 d1             	not    %rcx
  402595:	49 89 c8             	mov    %rcx,%r8
  402598:	48 89 f1             	mov    %rsi,%rcx
  40259b:	4c 89 f7             	mov    %r14,%rdi
  40259e:	f2 ae                	repnz scas %es:(%rdi),%al
  4025a0:	48 f7 d1             	not    %rcx
  4025a3:	4d 8d 44 08 fe       	lea    -0x2(%r8,%rcx,1),%r8
  4025a8:	48 89 f1             	mov    %rsi,%rcx
  4025ab:	48 8b 7c 24 08       	mov    0x8(%rsp),%rdi
  4025b0:	f2 ae                	repnz scas %es:(%rdi),%al
  4025b2:	48 89 c8             	mov    %rcx,%rax
  4025b5:	48 f7 d0             	not    %rax
  4025b8:	49 8d 4c 00 ff       	lea    -0x1(%r8,%rax,1),%rcx
  4025bd:	48 8d 44 52 fd       	lea    -0x3(%rdx,%rdx,2),%rax
  4025c2:	48 8d 84 01 80 00 00 	lea    0x80(%rcx,%rax,1),%rax
  4025c9:	00 
  4025ca:	48 3d 00 20 00 00    	cmp    $0x2000,%rax
  4025d0:	76 72                	jbe    402644 <submitr+0x2a8>
  4025d2:	48 b8 45 72 72 6f 72 	movabs $0x52203a726f727245,%rax
  4025d9:	3a 20 52 
  4025dc:	48 89 03             	mov    %rax,(%rbx)
  4025df:	48 b8 65 73 75 6c 74 	movabs $0x747320746c757365,%rax
  4025e6:	20 73 74 
  4025e9:	48 89 43 08          	mov    %rax,0x8(%rbx)
  4025ed:	48 b8 72 69 6e 67 20 	movabs $0x6f6f7420676e6972,%rax
  4025f4:	74 6f 6f 
  4025f7:	48 89 43 10          	mov    %rax,0x10(%rbx)
  4025fb:	48 b8 20 6c 61 72 67 	movabs $0x202e656772616c20,%rax
  402602:	65 2e 20 
  402605:	48 89 43 18          	mov    %rax,0x18(%rbx)
  402609:	48 b8 49 6e 63 72 65 	movabs $0x6573616572636e49,%rax
  402610:	61 73 65 
  402613:	48 89 43 20          	mov    %rax,0x20(%rbx)
  402617:	48 b8 20 53 55 42 4d 	movabs $0x5254494d42555320,%rax
  40261e:	49 54 52 
  402621:	48 89 43 28          	mov    %rax,0x28(%rbx)
  402625:	48 b8 5f 4d 41 58 42 	movabs $0x46554258414d5f,%rax
  40262c:	55 46 00 
  40262f:	48 89 43 30          	mov    %rax,0x30(%rbx)
  402633:	89 ef                	mov    %ebp,%edi
  402635:	e8 f6 e6 ff ff       	callq  400d30 <close@plt>
  40263a:	b8 ff ff ff ff       	mov    $0xffffffff,%eax
  40263f:	e9 9e 04 00 00       	jmpq   402ae2 <submitr+0x746>
  402644:	48 8d b4 24 40 40 00 	lea    0x4040(%rsp),%rsi
  40264b:	00 
  40264c:	b9 00 04 00 00       	mov    $0x400,%ecx
  402651:	b8 00 00 00 00       	mov    $0x0,%eax
  402656:	48 89 f7             	mov    %rsi,%rdi
  402659:	f3 48 ab             	rep stos %rax,%es:(%rdi)
  40265c:	4c 89 ef             	mov    %r13,%rdi
  40265f:	e8 2b fc ff ff       	callq  40228f <urlencode>
  402664:	85 c0                	test   %eax,%eax
  402666:	0f 89 8a 00 00 00    	jns    4026f6 <submitr+0x35a>
  40266c:	48 b8 45 72 72 6f 72 	movabs $0x52203a726f727245,%rax
  402673:	3a 20 52 
  402676:	48 89 03             	mov    %rax,(%rbx)
  402679:	48 b8 65 73 75 6c 74 	movabs $0x747320746c757365,%rax
  402680:	20 73 74 
  402683:	48 89 43 08          	mov    %rax,0x8(%rbx)
  402687:	48 b8 72 69 6e 67 20 	movabs $0x6e6f6320676e6972,%rax
  40268e:	63 6f 6e 
  402691:	48 89 43 10          	mov    %rax,0x10(%rbx)
  402695:	48 b8 74 61 69 6e 73 	movabs $0x6e6120736e696174,%rax
  40269c:	20 61 6e 
  40269f:	48 89 43 18          	mov    %rax,0x18(%rbx)
  4026a3:	48 b8 20 69 6c 6c 65 	movabs $0x6c6167656c6c6920,%rax
  4026aa:	67 61 6c 
  4026ad:	48 89 43 20          	mov    %rax,0x20(%rbx)
  4026b1:	48 b8 20 6f 72 20 75 	movabs $0x72706e7520726f20,%rax
  4026b8:	6e 70 72 
  4026bb:	48 89 43 28          	mov    %rax,0x28(%rbx)
  4026bf:	48 b8 69 6e 74 61 62 	movabs $0x20656c6261746e69,%rax
  4026c6:	6c 65 20 
  4026c9:	48 89 43 30          	mov    %rax,0x30(%rbx)
  4026cd:	48 b8 63 68 61 72 61 	movabs $0x6574636172616863,%rax
  4026d4:	63 74 65 
  4026d7:	48 89 43 38          	mov    %rax,0x38(%rbx)
  4026db:	66 c7 43 40 72 2e    	movw   $0x2e72,0x40(%rbx)
  4026e1:	c6 43 42 00          	movb   $0x0,0x42(%rbx)
  4026e5:	89 ef                	mov    %ebp,%edi
  4026e7:	e8 44 e6 ff ff       	callq  400d30 <close@plt>
  4026ec:	b8 ff ff ff ff       	mov    $0xffffffff,%eax
  4026f1:	e9 ec 03 00 00       	jmpq   402ae2 <submitr+0x746>
  4026f6:	4c 8d ac 24 40 20 00 	lea    0x2040(%rsp),%r13
  4026fd:	00 
  4026fe:	41 54                	push   %r12
  402700:	48 8d 84 24 48 40 00 	lea    0x4048(%rsp),%rax
  402707:	00 
  402708:	50                   	push   %rax
  402709:	4d 89 f9             	mov    %r15,%r9
  40270c:	4d 89 f0             	mov    %r14,%r8
  40270f:	b9 d8 36 40 00       	mov    $0x4036d8,%ecx
  402714:	ba 00 20 00 00       	mov    $0x2000,%edx
  402719:	be 01 00 00 00       	mov    $0x1,%esi
  40271e:	4c 89 ef             	mov    %r13,%rdi
  402721:	b8 00 00 00 00       	mov    $0x0,%eax
  402726:	e8 55 e7 ff ff       	callq  400e80 <__sprintf_chk@plt>
  40272b:	b8 00 00 00 00       	mov    $0x0,%eax
  402730:	48 c7 c1 ff ff ff ff 	mov    $0xffffffffffffffff,%rcx
  402737:	4c 89 ef             	mov    %r13,%rdi
  40273a:	f2 ae                	repnz scas %es:(%rdi),%al
  40273c:	48 f7 d1             	not    %rcx
  40273f:	48 8d 51 ff          	lea    -0x1(%rcx),%rdx
  402743:	4c 89 ee             	mov    %r13,%rsi
  402746:	89 ef                	mov    %ebp,%edi
  402748:	e8 b1 f9 ff ff       	callq  4020fe <rio_writen>
  40274d:	48 83 c4 10          	add    $0x10,%rsp
  402751:	48 85 c0             	test   %rax,%rax
  402754:	79 6e                	jns    4027c4 <submitr+0x428>
  402756:	48 b8 45 72 72 6f 72 	movabs $0x43203a726f727245,%rax
  40275d:	3a 20 43 
  402760:	48 89 03             	mov    %rax,(%rbx)
  402763:	48 b8 6c 69 65 6e 74 	movabs $0x6e7520746e65696c,%rax
  40276a:	20 75 6e 
  40276d:	48 89 43 08          	mov    %rax,0x8(%rbx)
  402771:	48 b8 61 62 6c 65 20 	movabs $0x206f7420656c6261,%rax
  402778:	74 6f 20 
  40277b:	48 89 43 10          	mov    %rax,0x10(%rbx)
  40277f:	48 b8 77 72 69 74 65 	movabs $0x6f74206574697277,%rax
  402786:	20 74 6f 
  402789:	48 89 43 18          	mov    %rax,0x18(%rbx)
  40278d:	48 b8 20 74 68 65 20 	movabs $0x7365722065687420,%rax
  402794:	72 65 73 
  402797:	48 89 43 20          	mov    %rax,0x20(%rbx)
  40279b:	48 b8 75 6c 74 20 73 	movabs $0x7672657320746c75,%rax
  4027a2:	65 72 76 
  4027a5:	48 89 43 28          	mov    %rax,0x28(%rbx)
  4027a9:	66 c7 43 30 65 72    	movw   $0x7265,0x30(%rbx)
  4027af:	c6 43 32 00          	movb   $0x0,0x32(%rbx)
  4027b3:	89 ef                	mov    %ebp,%edi
  4027b5:	e8 76 e5 ff ff       	callq  400d30 <close@plt>
  4027ba:	b8 ff ff ff ff       	mov    $0xffffffff,%eax
  4027bf:	e9 1e 03 00 00       	jmpq   402ae2 <submitr+0x746>
  4027c4:	89 ee                	mov    %ebp,%esi
  4027c6:	48 8d 7c 24 30       	lea    0x30(%rsp),%rdi
  4027cb:	e8 ee f8 ff ff       	callq  4020be <rio_readinitb>
  4027d0:	ba 00 20 00 00       	mov    $0x2000,%edx
  4027d5:	48 8d b4 24 40 20 00 	lea    0x2040(%rsp),%rsi
  4027dc:	00 
  4027dd:	48 8d 7c 24 30       	lea    0x30(%rsp),%rdi
  4027e2:	e8 fe f9 ff ff       	callq  4021e5 <rio_readlineb>
  4027e7:	48 85 c0             	test   %rax,%rax
  4027ea:	7f 7d                	jg     402869 <submitr+0x4cd>
  4027ec:	48 b8 45 72 72 6f 72 	movabs $0x43203a726f727245,%rax
  4027f3:	3a 20 43 
  4027f6:	48 89 03             	mov    %rax,(%rbx)
  4027f9:	48 b8 6c 69 65 6e 74 	movabs $0x6e7520746e65696c,%rax
  402800:	20 75 6e 
  402803:	48 89 43 08          	mov    %rax,0x8(%rbx)
  402807:	48 b8 61 62 6c 65 20 	movabs $0x206f7420656c6261,%rax
  40280e:	74 6f 20 
  402811:	48 89 43 10          	mov    %rax,0x10(%rbx)
  402815:	48 b8 72 65 61 64 20 	movabs $0x7269662064616572,%rax
  40281c:	66 69 72 
  40281f:	48 89 43 18          	mov    %rax,0x18(%rbx)
  402823:	48 b8 73 74 20 68 65 	movabs $0x6564616568207473,%rax
  40282a:	61 64 65 
  40282d:	48 89 43 20          	mov    %rax,0x20(%rbx)
  402831:	48 b8 72 20 66 72 6f 	movabs $0x72206d6f72662072,%rax
  402838:	6d 20 72 
  40283b:	48 89 43 28          	mov    %rax,0x28(%rbx)
  40283f:	48 b8 65 73 75 6c 74 	movabs $0x657320746c757365,%rax
  402846:	20 73 65 
  402849:	48 89 43 30          	mov    %rax,0x30(%rbx)
  40284d:	c7 43 38 72 76 65 72 	movl   $0x72657672,0x38(%rbx)
  402854:	c6 43 3c 00          	movb   $0x0,0x3c(%rbx)
  402858:	89 ef                	mov    %ebp,%edi
  40285a:	e8 d1 e4 ff ff       	callq  400d30 <close@plt>
  40285f:	b8 ff ff ff ff       	mov    $0xffffffff,%eax
  402864:	e9 79 02 00 00       	jmpq   402ae2 <submitr+0x746>
  402869:	4c 8d 84 24 40 80 00 	lea    0x8040(%rsp),%r8
  402870:	00 
  402871:	48 8d 4c 24 1c       	lea    0x1c(%rsp),%rcx
  402876:	48 8d 94 24 40 60 00 	lea    0x6040(%rsp),%rdx
  40287d:	00 
  40287e:	be 4f 37 40 00       	mov    $0x40374f,%esi
  402883:	48 8d bc 24 40 20 00 	lea    0x2040(%rsp),%rdi
  40288a:	00 
  40288b:	b8 00 00 00 00       	mov    $0x0,%eax
  402890:	e8 4b e5 ff ff       	callq  400de0 <__isoc99_sscanf@plt>
  402895:	e9 95 00 00 00       	jmpq   40292f <submitr+0x593>
  40289a:	ba 00 20 00 00       	mov    $0x2000,%edx
  40289f:	48 8d b4 24 40 20 00 	lea    0x2040(%rsp),%rsi
  4028a6:	00 
  4028a7:	48 8d 7c 24 30       	lea    0x30(%rsp),%rdi
  4028ac:	e8 34 f9 ff ff       	callq  4021e5 <rio_readlineb>
  4028b1:	48 85 c0             	test   %rax,%rax
  4028b4:	7f 79                	jg     40292f <submitr+0x593>
  4028b6:	48 b8 45 72 72 6f 72 	movabs $0x43203a726f727245,%rax
  4028bd:	3a 20 43 
  4028c0:	48 89 03             	mov    %rax,(%rbx)
  4028c3:	48 b8 6c 69 65 6e 74 	movabs $0x6e7520746e65696c,%rax
  4028ca:	20 75 6e 
  4028cd:	48 89 43 08          	mov    %rax,0x8(%rbx)
  4028d1:	48 b8 61 62 6c 65 20 	movabs $0x206f7420656c6261,%rax
  4028d8:	74 6f 20 
  4028db:	48 89 43 10          	mov    %rax,0x10(%rbx)
  4028df:	48 b8 72 65 61 64 20 	movabs $0x6165682064616572,%rax
  4028e6:	68 65 61 
  4028e9:	48 89 43 18          	mov    %rax,0x18(%rbx)
  4028ed:	48 b8 64 65 72 73 20 	movabs $0x6f72662073726564,%rax
  4028f4:	66 72 6f 
  4028f7:	48 89 43 20          	mov    %rax,0x20(%rbx)
  4028fb:	48 b8 6d 20 74 68 65 	movabs $0x657220656874206d,%rax
  402902:	20 72 65 
  402905:	48 89 43 28          	mov    %rax,0x28(%rbx)
  402909:	48 b8 73 75 6c 74 20 	movabs $0x72657320746c7573,%rax
  402910:	73 65 72 
  402913:	48 89 43 30          	mov    %rax,0x30(%rbx)
  402917:	c7 43 38 76 65 72 00 	movl   $0x726576,0x38(%rbx)
  40291e:	89 ef                	mov    %ebp,%edi
  402920:	e8 0b e4 ff ff       	callq  400d30 <close@plt>
  402925:	b8 ff ff ff ff       	mov    $0xffffffff,%eax
  40292a:	e9 b3 01 00 00       	jmpq   402ae2 <submitr+0x746>
  40292f:	0f b6 94 24 40 20 00 	movzbl 0x2040(%rsp),%edx
  402936:	00 
  402937:	b8 0d 00 00 00       	mov    $0xd,%eax
  40293c:	29 d0                	sub    %edx,%eax
  40293e:	75 1b                	jne    40295b <submitr+0x5bf>
  402940:	0f b6 94 24 41 20 00 	movzbl 0x2041(%rsp),%edx
  402947:	00 
  402948:	b8 0a 00 00 00       	mov    $0xa,%eax
  40294d:	29 d0                	sub    %edx,%eax
  40294f:	75 0a                	jne    40295b <submitr+0x5bf>
  402951:	0f b6 84 24 42 20 00 	movzbl 0x2042(%rsp),%eax
  402958:	00 
  402959:	f7 d8                	neg    %eax
  40295b:	85 c0                	test   %eax,%eax
  40295d:	0f 85 37 ff ff ff    	jne    40289a <submitr+0x4fe>
  402963:	ba 00 20 00 00       	mov    $0x2000,%edx
  402968:	48 8d b4 24 40 20 00 	lea    0x2040(%rsp),%rsi
  40296f:	00 
  402970:	48 8d 7c 24 30       	lea    0x30(%rsp),%rdi
  402975:	e8 6b f8 ff ff       	callq  4021e5 <rio_readlineb>
  40297a:	48 85 c0             	test   %rax,%rax
  40297d:	0f 8f 83 00 00 00    	jg     402a06 <submitr+0x66a>
  402983:	48 b8 45 72 72 6f 72 	movabs $0x43203a726f727245,%rax
  40298a:	3a 20 43 
  40298d:	48 89 03             	mov    %rax,(%rbx)
  402990:	48 b8 6c 69 65 6e 74 	movabs $0x6e7520746e65696c,%rax
  402997:	20 75 6e 
  40299a:	48 89 43 08          	mov    %rax,0x8(%rbx)
  40299e:	48 b8 61 62 6c 65 20 	movabs $0x206f7420656c6261,%rax
  4029a5:	74 6f 20 
  4029a8:	48 89 43 10          	mov    %rax,0x10(%rbx)
  4029ac:	48 b8 72 65 61 64 20 	movabs $0x6174732064616572,%rax
  4029b3:	73 74 61 
  4029b6:	48 89 43 18          	mov    %rax,0x18(%rbx)
  4029ba:	48 b8 74 75 73 20 6d 	movabs $0x7373656d20737574,%rax
  4029c1:	65 73 73 
  4029c4:	48 89 43 20          	mov    %rax,0x20(%rbx)
  4029c8:	48 b8 61 67 65 20 66 	movabs $0x6d6f726620656761,%rax
  4029cf:	72 6f 6d 
  4029d2:	48 89 43 28          	mov    %rax,0x28(%rbx)
  4029d6:	48 b8 20 72 65 73 75 	movabs $0x20746c7573657220,%rax
  4029dd:	6c 74 20 
  4029e0:	48 89 43 30          	mov    %rax,0x30(%rbx)
  4029e4:	c7 43 38 73 65 72 76 	movl   $0x76726573,0x38(%rbx)
  4029eb:	66 c7 43 3c 65 72    	movw   $0x7265,0x3c(%rbx)
  4029f1:	c6 43 3e 00          	movb   $0x0,0x3e(%rbx)
  4029f5:	89 ef                	mov    %ebp,%edi
  4029f7:	e8 34 e3 ff ff       	callq  400d30 <close@plt>
  4029fc:	b8 ff ff ff ff       	mov    $0xffffffff,%eax
  402a01:	e9 dc 00 00 00       	jmpq   402ae2 <submitr+0x746>
  402a06:	44 8b 44 24 1c       	mov    0x1c(%rsp),%r8d
  402a0b:	41 81 f8 c8 00 00 00 	cmp    $0xc8,%r8d
  402a12:	74 37                	je     402a4b <submitr+0x6af>
  402a14:	4c 8d 8c 24 40 80 00 	lea    0x8040(%rsp),%r9
  402a1b:	00 
  402a1c:	b9 18 37 40 00       	mov    $0x403718,%ecx
  402a21:	48 c7 c2 ff ff ff ff 	mov    $0xffffffffffffffff,%rdx
  402a28:	be 01 00 00 00       	mov    $0x1,%esi
  402a2d:	48 89 df             	mov    %rbx,%rdi
  402a30:	b8 00 00 00 00       	mov    $0x0,%eax
  402a35:	e8 46 e4 ff ff       	callq  400e80 <__sprintf_chk@plt>
  402a3a:	89 ef                	mov    %ebp,%edi
  402a3c:	e8 ef e2 ff ff       	callq  400d30 <close@plt>
  402a41:	b8 ff ff ff ff       	mov    $0xffffffff,%eax
  402a46:	e9 97 00 00 00       	jmpq   402ae2 <submitr+0x746>
  402a4b:	48 8d b4 24 40 20 00 	lea    0x2040(%rsp),%rsi
  402a52:	00 
  402a53:	48 89 df             	mov    %rbx,%rdi
  402a56:	e8 65 e2 ff ff       	callq  400cc0 <strcpy@plt>
  402a5b:	89 ef                	mov    %ebp,%edi
  402a5d:	e8 ce e2 ff ff       	callq  400d30 <close@plt>
  402a62:	0f b6 03             	movzbl (%rbx),%eax
  402a65:	ba 4f 00 00 00       	mov    $0x4f,%edx
  402a6a:	29 c2                	sub    %eax,%edx
  402a6c:	75 22                	jne    402a90 <submitr+0x6f4>
  402a6e:	0f b6 4b 01          	movzbl 0x1(%rbx),%ecx
  402a72:	b8 4b 00 00 00       	mov    $0x4b,%eax
  402a77:	29 c8                	sub    %ecx,%eax
  402a79:	75 17                	jne    402a92 <submitr+0x6f6>
  402a7b:	0f b6 4b 02          	movzbl 0x2(%rbx),%ecx
  402a7f:	b8 0a 00 00 00       	mov    $0xa,%eax
  402a84:	29 c8                	sub    %ecx,%eax
  402a86:	75 0a                	jne    402a92 <submitr+0x6f6>
  402a88:	0f b6 43 03          	movzbl 0x3(%rbx),%eax
  402a8c:	f7 d8                	neg    %eax
  402a8e:	eb 02                	jmp    402a92 <submitr+0x6f6>
  402a90:	89 d0                	mov    %edx,%eax
  402a92:	85 c0                	test   %eax,%eax
  402a94:	74 40                	je     402ad6 <submitr+0x73a>
  402a96:	bf 60 37 40 00       	mov    $0x403760,%edi
  402a9b:	b9 05 00 00 00       	mov    $0x5,%ecx
  402aa0:	48 89 de             	mov    %rbx,%rsi
  402aa3:	f3 a6                	repz cmpsb %es:(%rdi),%ds:(%rsi)
  402aa5:	0f 97 c0             	seta   %al
  402aa8:	0f 92 c1             	setb   %cl
  402aab:	29 c8                	sub    %ecx,%eax
  402aad:	0f be c0             	movsbl %al,%eax
  402ab0:	85 c0                	test   %eax,%eax
  402ab2:	74 2e                	je     402ae2 <submitr+0x746>
  402ab4:	85 d2                	test   %edx,%edx
  402ab6:	75 13                	jne    402acb <submitr+0x72f>
  402ab8:	0f b6 43 01          	movzbl 0x1(%rbx),%eax
  402abc:	ba 4b 00 00 00       	mov    $0x4b,%edx
  402ac1:	29 c2                	sub    %eax,%edx
  402ac3:	75 06                	jne    402acb <submitr+0x72f>
  402ac5:	0f b6 53 02          	movzbl 0x2(%rbx),%edx
  402ac9:	f7 da                	neg    %edx
  402acb:	85 d2                	test   %edx,%edx
  402acd:	75 0e                	jne    402add <submitr+0x741>
  402acf:	b8 00 00 00 00       	mov    $0x0,%eax
  402ad4:	eb 0c                	jmp    402ae2 <submitr+0x746>
  402ad6:	b8 00 00 00 00       	mov    $0x0,%eax
  402adb:	eb 05                	jmp    402ae2 <submitr+0x746>
  402add:	b8 ff ff ff ff       	mov    $0xffffffff,%eax
  402ae2:	48 8b 9c 24 48 a0 00 	mov    0xa048(%rsp),%rbx
  402ae9:	00 
  402aea:	64 48 33 1c 25 28 00 	xor    %fs:0x28,%rbx
  402af1:	00 00 
  402af3:	74 05                	je     402afa <submitr+0x75e>
  402af5:	e8 f6 e1 ff ff       	callq  400cf0 <__stack_chk_fail@plt>
  402afa:	48 81 c4 58 a0 00 00 	add    $0xa058,%rsp
  402b01:	5b                   	pop    %rbx
  402b02:	5d                   	pop    %rbp
  402b03:	41 5c                	pop    %r12
  402b05:	41 5d                	pop    %r13
  402b07:	41 5e                	pop    %r14
  402b09:	41 5f                	pop    %r15
  402b0b:	c3                   	retq   

0000000000402b0c <init_timeout>:
  402b0c:	85 ff                	test   %edi,%edi
  402b0e:	74 23                	je     402b33 <init_timeout+0x27>
  402b10:	53                   	push   %rbx
  402b11:	89 fb                	mov    %edi,%ebx
  402b13:	85 ff                	test   %edi,%edi
  402b15:	79 05                	jns    402b1c <init_timeout+0x10>
  402b17:	bb 00 00 00 00       	mov    $0x0,%ebx
  402b1c:	be d0 20 40 00       	mov    $0x4020d0,%esi
  402b21:	bf 0e 00 00 00       	mov    $0xe,%edi
  402b26:	e8 35 e2 ff ff       	callq  400d60 <signal@plt>
  402b2b:	89 df                	mov    %ebx,%edi
  402b2d:	e8 ee e1 ff ff       	callq  400d20 <alarm@plt>
  402b32:	5b                   	pop    %rbx
  402b33:	f3 c3                	repz retq 

0000000000402b35 <init_driver>:
  402b35:	55                   	push   %rbp
  402b36:	53                   	push   %rbx
  402b37:	48 83 ec 28          	sub    $0x28,%rsp
  402b3b:	48 89 fd             	mov    %rdi,%rbp
  402b3e:	64 48 8b 04 25 28 00 	mov    %fs:0x28,%rax
  402b45:	00 00 
  402b47:	48 89 44 24 18       	mov    %rax,0x18(%rsp)
  402b4c:	31 c0                	xor    %eax,%eax
  402b4e:	be 01 00 00 00       	mov    $0x1,%esi
  402b53:	bf 0d 00 00 00       	mov    $0xd,%edi
  402b58:	e8 03 e2 ff ff       	callq  400d60 <signal@plt>
  402b5d:	be 01 00 00 00       	mov    $0x1,%esi
  402b62:	bf 1d 00 00 00       	mov    $0x1d,%edi
  402b67:	e8 f4 e1 ff ff       	callq  400d60 <signal@plt>
  402b6c:	be 01 00 00 00       	mov    $0x1,%esi
  402b71:	bf 1d 00 00 00       	mov    $0x1d,%edi
  402b76:	e8 e5 e1 ff ff       	callq  400d60 <signal@plt>
  402b7b:	ba 00 00 00 00       	mov    $0x0,%edx
  402b80:	be 01 00 00 00       	mov    $0x1,%esi
  402b85:	bf 02 00 00 00       	mov    $0x2,%edi
  402b8a:	e8 01 e3 ff ff       	callq  400e90 <socket@plt>
  402b8f:	85 c0                	test   %eax,%eax
  402b91:	79 4f                	jns    402be2 <init_driver+0xad>
  402b93:	48 b8 45 72 72 6f 72 	movabs $0x43203a726f727245,%rax
  402b9a:	3a 20 43 
  402b9d:	48 89 45 00          	mov    %rax,0x0(%rbp)
  402ba1:	48 b8 6c 69 65 6e 74 	movabs $0x6e7520746e65696c,%rax
  402ba8:	20 75 6e 
  402bab:	48 89 45 08          	mov    %rax,0x8(%rbp)
  402baf:	48 b8 61 62 6c 65 20 	movabs $0x206f7420656c6261,%rax
  402bb6:	74 6f 20 
  402bb9:	48 89 45 10          	mov    %rax,0x10(%rbp)
  402bbd:	48 b8 63 72 65 61 74 	movabs $0x7320657461657263,%rax
  402bc4:	65 20 73 
  402bc7:	48 89 45 18          	mov    %rax,0x18(%rbp)
  402bcb:	c7 45 20 6f 63 6b 65 	movl   $0x656b636f,0x20(%rbp)
  402bd2:	66 c7 45 24 74 00    	movw   $0x74,0x24(%rbp)
  402bd8:	b8 ff ff ff ff       	mov    $0xffffffff,%eax
  402bdd:	e9 2a 01 00 00       	jmpq   402d0c <init_driver+0x1d7>
  402be2:	89 c3                	mov    %eax,%ebx
  402be4:	bf 65 37 40 00       	mov    $0x403765,%edi
  402be9:	e8 82 e1 ff ff       	callq  400d70 <gethostbyname@plt>
  402bee:	48 85 c0             	test   %rax,%rax
  402bf1:	75 68                	jne    402c5b <init_driver+0x126>
  402bf3:	48 b8 45 72 72 6f 72 	movabs $0x44203a726f727245,%rax
  402bfa:	3a 20 44 
  402bfd:	48 89 45 00          	mov    %rax,0x0(%rbp)
  402c01:	48 b8 4e 53 20 69 73 	movabs $0x6e7520736920534e,%rax
  402c08:	20 75 6e 
  402c0b:	48 89 45 08          	mov    %rax,0x8(%rbp)
  402c0f:	48 b8 61 62 6c 65 20 	movabs $0x206f7420656c6261,%rax
  402c16:	74 6f 20 
  402c19:	48 89 45 10          	mov    %rax,0x10(%rbp)
  402c1d:	48 b8 72 65 73 6f 6c 	movabs $0x2065766c6f736572,%rax
  402c24:	76 65 20 
  402c27:	48 89 45 18          	mov    %rax,0x18(%rbp)
  402c2b:	48 b8 73 65 72 76 65 	movabs $0x6120726576726573,%rax
  402c32:	72 20 61 
  402c35:	48 89 45 20          	mov    %rax,0x20(%rbp)
  402c39:	c7 45 28 64 64 72 65 	movl   $0x65726464,0x28(%rbp)
  402c40:	66 c7 45 2c 73 73    	movw   $0x7373,0x2c(%rbp)
  402c46:	c6 45 2e 00          	movb   $0x0,0x2e(%rbp)
  402c4a:	89 df                	mov    %ebx,%edi
  402c4c:	e8 df e0 ff ff       	callq  400d30 <close@plt>
  402c51:	b8 ff ff ff ff       	mov    $0xffffffff,%eax
  402c56:	e9 b1 00 00 00       	jmpq   402d0c <init_driver+0x1d7>
  402c5b:	48 c7 04 24 00 00 00 	movq   $0x0,(%rsp)
  402c62:	00 
  402c63:	48 c7 44 24 08 00 00 	movq   $0x0,0x8(%rsp)
  402c6a:	00 00 
  402c6c:	66 c7 04 24 02 00    	movw   $0x2,(%rsp)
  402c72:	48 63 50 14          	movslq 0x14(%rax),%rdx
  402c76:	48 8b 40 18          	mov    0x18(%rax),%rax
  402c7a:	48 8b 30             	mov    (%rax),%rsi
  402c7d:	48 8d 7c 24 04       	lea    0x4(%rsp),%rdi
  402c82:	b9 0c 00 00 00       	mov    $0xc,%ecx
  402c87:	e8 f4 e0 ff ff       	callq  400d80 <__memmove_chk@plt>
  402c8c:	66 c7 44 24 02 3c 9a 	movw   $0x9a3c,0x2(%rsp)
  402c93:	ba 10 00 00 00       	mov    $0x10,%edx
  402c98:	48 89 e6             	mov    %rsp,%rsi
  402c9b:	89 df                	mov    %ebx,%edi
  402c9d:	e8 be e1 ff ff       	callq  400e60 <connect@plt>
  402ca2:	85 c0                	test   %eax,%eax
  402ca4:	79 50                	jns    402cf6 <init_driver+0x1c1>
  402ca6:	48 b8 45 72 72 6f 72 	movabs $0x55203a726f727245,%rax
  402cad:	3a 20 55 
  402cb0:	48 89 45 00          	mov    %rax,0x0(%rbp)
  402cb4:	48 b8 6e 61 62 6c 65 	movabs $0x6f7420656c62616e,%rax
  402cbb:	20 74 6f 
  402cbe:	48 89 45 08          	mov    %rax,0x8(%rbp)
  402cc2:	48 b8 20 63 6f 6e 6e 	movabs $0x7463656e6e6f6320,%rax
  402cc9:	65 63 74 
  402ccc:	48 89 45 10          	mov    %rax,0x10(%rbp)
  402cd0:	48 b8 20 74 6f 20 73 	movabs $0x76726573206f7420,%rax
  402cd7:	65 72 76 
  402cda:	48 89 45 18          	mov    %rax,0x18(%rbp)
  402cde:	66 c7 45 20 65 72    	movw   $0x7265,0x20(%rbp)
  402ce4:	c6 45 22 00          	movb   $0x0,0x22(%rbp)
  402ce8:	89 df                	mov    %ebx,%edi
  402cea:	e8 41 e0 ff ff       	callq  400d30 <close@plt>
  402cef:	b8 ff ff ff ff       	mov    $0xffffffff,%eax
  402cf4:	eb 16                	jmp    402d0c <init_driver+0x1d7>
  402cf6:	89 df                	mov    %ebx,%edi
  402cf8:	e8 33 e0 ff ff       	callq  400d30 <close@plt>
  402cfd:	66 c7 45 00 4f 4b    	movw   $0x4b4f,0x0(%rbp)
  402d03:	c6 45 02 00          	movb   $0x0,0x2(%rbp)
  402d07:	b8 00 00 00 00       	mov    $0x0,%eax
  402d0c:	48 8b 4c 24 18       	mov    0x18(%rsp),%rcx
  402d11:	64 48 33 0c 25 28 00 	xor    %fs:0x28,%rcx
  402d18:	00 00 
  402d1a:	74 05                	je     402d21 <init_driver+0x1ec>
  402d1c:	e8 cf df ff ff       	callq  400cf0 <__stack_chk_fail@plt>
  402d21:	48 83 c4 28          	add    $0x28,%rsp
  402d25:	5b                   	pop    %rbx
  402d26:	5d                   	pop    %rbp
  402d27:	c3                   	retq   

0000000000402d28 <driver_post>:
  402d28:	53                   	push   %rbx
  402d29:	4c 89 cb             	mov    %r9,%rbx
  402d2c:	45 85 c0             	test   %r8d,%r8d
  402d2f:	74 27                	je     402d58 <driver_post+0x30>
  402d31:	48 89 ca             	mov    %rcx,%rdx
  402d34:	be 73 37 40 00       	mov    $0x403773,%esi
  402d39:	bf 01 00 00 00       	mov    $0x1,%edi
  402d3e:	b8 00 00 00 00       	mov    $0x0,%eax
  402d43:	e8 b8 e0 ff ff       	callq  400e00 <__printf_chk@plt>
  402d48:	66 c7 03 4f 4b       	movw   $0x4b4f,(%rbx)
  402d4d:	c6 43 02 00          	movb   $0x0,0x2(%rbx)
  402d51:	b8 00 00 00 00       	mov    $0x0,%eax
  402d56:	eb 3f                	jmp    402d97 <driver_post+0x6f>
  402d58:	48 85 ff             	test   %rdi,%rdi
  402d5b:	74 2c                	je     402d89 <driver_post+0x61>
  402d5d:	80 3f 00             	cmpb   $0x0,(%rdi)
  402d60:	74 27                	je     402d89 <driver_post+0x61>
  402d62:	48 83 ec 08          	sub    $0x8,%rsp
  402d66:	41 51                	push   %r9
  402d68:	49 89 c9             	mov    %rcx,%r9
  402d6b:	49 89 d0             	mov    %rdx,%r8
  402d6e:	48 89 f9             	mov    %rdi,%rcx
  402d71:	48 89 f2             	mov    %rsi,%rdx
  402d74:	be 9a 3c 00 00       	mov    $0x3c9a,%esi
  402d79:	bf 65 37 40 00       	mov    $0x403765,%edi
  402d7e:	e8 19 f6 ff ff       	callq  40239c <submitr>
  402d83:	48 83 c4 10          	add    $0x10,%rsp
  402d87:	eb 0e                	jmp    402d97 <driver_post+0x6f>
  402d89:	66 c7 03 4f 4b       	movw   $0x4b4f,(%rbx)
  402d8e:	c6 43 02 00          	movb   $0x0,0x2(%rbx)
  402d92:	b8 00 00 00 00       	mov    $0x0,%eax
  402d97:	5b                   	pop    %rbx
  402d98:	c3                   	retq   

0000000000402d99 <check>:
  402d99:	89 f8                	mov    %edi,%eax
  402d9b:	c1 e8 1c             	shr    $0x1c,%eax
  402d9e:	85 c0                	test   %eax,%eax
  402da0:	74 1d                	je     402dbf <check+0x26>
  402da2:	b9 00 00 00 00       	mov    $0x0,%ecx
  402da7:	eb 0b                	jmp    402db4 <check+0x1b>
  402da9:	89 f8                	mov    %edi,%eax
  402dab:	d3 e8                	shr    %cl,%eax
  402dad:	3c 0a                	cmp    $0xa,%al
  402daf:	74 14                	je     402dc5 <check+0x2c>
  402db1:	83 c1 08             	add    $0x8,%ecx
  402db4:	83 f9 1f             	cmp    $0x1f,%ecx
  402db7:	7e f0                	jle    402da9 <check+0x10>
  402db9:	b8 01 00 00 00       	mov    $0x1,%eax
  402dbe:	c3                   	retq   
  402dbf:	b8 00 00 00 00       	mov    $0x0,%eax
  402dc4:	c3                   	retq   
  402dc5:	b8 00 00 00 00       	mov    $0x0,%eax
  402dca:	c3                   	retq   

0000000000402dcb <gencookie>:
  402dcb:	53                   	push   %rbx
  402dcc:	83 c7 01             	add    $0x1,%edi
  402dcf:	e8 cc de ff ff       	callq  400ca0 <srandom@plt>
  402dd4:	e8 e7 df ff ff       	callq  400dc0 <random@plt>
  402dd9:	89 c3                	mov    %eax,%ebx
  402ddb:	89 c7                	mov    %eax,%edi
  402ddd:	e8 b7 ff ff ff       	callq  402d99 <check>
  402de2:	85 c0                	test   %eax,%eax
  402de4:	74 ee                	je     402dd4 <gencookie+0x9>
  402de6:	89 d8                	mov    %ebx,%eax
  402de8:	5b                   	pop    %rbx
  402de9:	c3                   	retq   
  402dea:	66 0f 1f 44 00 00    	nopw   0x0(%rax,%rax,1)

0000000000402df0 <__libc_csu_init>:
  402df0:	41 57                	push   %r15
  402df2:	41 56                	push   %r14
  402df4:	41 89 ff             	mov    %edi,%r15d
  402df7:	41 55                	push   %r13
  402df9:	41 54                	push   %r12
  402dfb:	4c 8d 25 0e 20 20 00 	lea    0x20200e(%rip),%r12        # 604e10 <__frame_dummy_init_array_entry>
  402e02:	55                   	push   %rbp
  402e03:	48 8d 2d 0e 20 20 00 	lea    0x20200e(%rip),%rbp        # 604e18 <__do_global_dtors_aux_fini_array_entry>
  402e0a:	53                   	push   %rbx
  402e0b:	49 89 f6             	mov    %rsi,%r14
  402e0e:	49 89 d5             	mov    %rdx,%r13
  402e11:	4c 29 e5             	sub    %r12,%rbp
  402e14:	48 83 ec 08          	sub    $0x8,%rsp
  402e18:	48 c1 fd 03          	sar    $0x3,%rbp
  402e1c:	e8 27 de ff ff       	callq  400c48 <_init>
  402e21:	48 85 ed             	test   %rbp,%rbp
  402e24:	74 20                	je     402e46 <__libc_csu_init+0x56>
  402e26:	31 db                	xor    %ebx,%ebx
  402e28:	0f 1f 84 00 00 00 00 	nopl   0x0(%rax,%rax,1)
  402e2f:	00 
  402e30:	4c 89 ea             	mov    %r13,%rdx
  402e33:	4c 89 f6             	mov    %r14,%rsi
  402e36:	44 89 ff             	mov    %r15d,%edi
  402e39:	41 ff 14 dc          	callq  *(%r12,%rbx,8)
  402e3d:	48 83 c3 01          	add    $0x1,%rbx
  402e41:	48 39 eb             	cmp    %rbp,%rbx
  402e44:	75 ea                	jne    402e30 <__libc_csu_init+0x40>
  402e46:	48 83 c4 08          	add    $0x8,%rsp
  402e4a:	5b                   	pop    %rbx
  402e4b:	5d                   	pop    %rbp
  402e4c:	41 5c                	pop    %r12
  402e4e:	41 5d                	pop    %r13
  402e50:	41 5e                	pop    %r14
  402e52:	41 5f                	pop    %r15
  402e54:	c3                   	retq   
  402e55:	90                   	nop
  402e56:	66 2e 0f 1f 84 00 00 	nopw   %cs:0x0(%rax,%rax,1)
  402e5d:	00 00 00 

0000000000402e60 <__libc_csu_fini>:
  402e60:	f3 c3                	repz retq 

Disassembly of section .fini:

0000000000402e64 <_fini>:
  402e64:	48 83 ec 08          	sub    $0x8,%rsp
  402e68:	48 83 c4 08          	add    $0x8,%rsp
  402e6c:	c3                   	retq   
